

Microchip MPLAB XC8 Assembler V2.32 build 20210201212658 
                                                                                               Mon May 31 00:58:09 2021

Microchip MPLAB XC8 C Compiler v2.32 (Free license) build 20210201212658 Og1 
     1                           	processor	16F887
     2                           	pagewidth 120
     3                           	opt	flic
     4                           	psect	idataBANK0,global,class=CODE,delta=2,noexec
     5                           	psect	idataBANK1,global,class=CODE,delta=2,noexec
     6                           	psect	cinit,global,class=CODE,merge=1,delta=2
     7                           	psect	bssCOMMON,global,class=COMMON,space=1,delta=1,noexec
     8                           	psect	bssBANK0,global,class=BANK0,space=1,delta=1,noexec
     9                           	psect	dataBANK0,global,class=BANK0,space=1,delta=1,noexec
    10                           	psect	bssBANK1,global,class=BANK1,space=1,delta=1,noexec
    11                           	psect	dataBANK1,global,class=BANK1,space=1,delta=1,noexec
    12                           	psect	cstackCOMMON,global,class=COMMON,space=1,delta=1,noexec
    13                           	psect	cstackBANK0,global,class=BANK0,space=1,delta=1,noexec
    14                           	psect	maintext,global,class=CODE,split=1,delta=2
    15                           	psect	text1,local,class=CODE,merge=1,delta=2
    16                           	psect	text2,local,class=CODE,merge=1,delta=2
    17                           	psect	text3,local,class=CODE,merge=1,delta=2
    18                           	psect	text4,local,class=CODE,merge=1,delta=2
    19                           	psect	text5,local,class=CODE,merge=1,delta=2
    20                           	psect	text6,local,class=CODE,merge=1,delta=2
    21                           	psect	text7,local,class=CODE,merge=1,delta=2,group=1
    22                           	psect	text8,local,class=CODE,merge=1,delta=2,group=1
    23                           	psect	text9,local,class=CODE,merge=1,delta=2,group=1
    24                           	psect	text10,local,class=CODE,merge=1,delta=2,group=1
    25                           	psect	text11,local,class=CODE,merge=1,delta=2,group=1
    26                           	psect	text12,local,class=CODE,merge=1,delta=2
    27                           	psect	text13,local,class=CODE,merge=1,delta=2
    28                           	psect	intentry,global,class=CODE,delta=2
    29                           	psect	config,global,abs,ovrld,class=CONFIG,space=4,delta=2,noexec
    30                           	dabs	1,0x7E,2
    31  0000                     
    32                           ; Version 2.20
    33                           ; Generated 12/02/2020 GMT
    34                           ; 
    35                           ; Copyright © 2020, Microchip Technology Inc. and its subsidiaries ("Microchip")
    36                           ; All rights reserved.
    37                           ; 
    38                           ; This software is developed by Microchip Technology Inc. and its subsidiaries ("Microch
      +                          ip").
    39                           ; 
    40                           ; Redistribution and use in source and binary forms, with or without modification, are
    41                           ; permitted provided that the following conditions are met:
    42                           ; 
    43                           ;     1. Redistributions of source code must retain the above copyright notice, this lis
      +                          t of
    44                           ;        conditions and the following disclaimer.
    45                           ; 
    46                           ;     2. Redistributions in binary form must reproduce the above copyright notice, this 
      +                          list
    47                           ;        of conditions and the following disclaimer in the documentation and/or other
    48                           ;        materials provided with the distribution.
    49                           ; 
    50                           ;     3. Microchip's name may not be used to endorse or promote products derived from th
      +                          is
    51                           ;        software without specific prior written permission.
    52                           ; 
    53                           ; THIS SOFTWARE IS PROVIDED BY MICROCHIP "AS IS" AND ANY EXPRESS OR IMPLIED WARRANTIES,
    54                           ; INCLUDING, BUT NOT LIMITED TO, THE IMPLIED WARRANTIES OF MERCHANTABILITY AND FITNESS F
      +                          OR
    55                           ; PURPOSE ARE DISCLAIMED.  IN NO EVENT SHALL MICROCHIP BE LIABLE FOR ANY DIRECT, INDIREC
      +                          T,
    56                           ; INCIDENTAL, SPECIAL, EXEMPLARY, OR CONSEQUENTIAL DAMAGES (INCLUDING BUT NOT LIMITED TO
    57                           ; PROCUREMENT OF SUBSTITUTE GOODS OR SERVICES; LOSS OF USE, DATA OR PROFITS; OR BUSINESS
    58                           ; INTERRUPTION) HOWSOEVER CAUSED AND ON ANY THEORY OF LIABILITY, WHETHER IN CONTRACT, ST
      +                          RICT
    59                           ; LIABILITY, OR TORT (INCLUDING NEGLIGENCE OR OTHERWISE) ARISING IN ANY WAY OUT OF THE U
      +                          SE OF
    60                           ; THIS SOFTWARE, EVEN IF ADVISED OF THE POSSIBILITY OF SUCH DAMAGE.
    61                           ; 
    62                           ; 
    63                           ; Code-generator required, PIC16F887 Definitions
    64                           ; 
    65                           ; SFR Addresses
    66  0000                     	;# 
    67  0001                     	;# 
    68  0002                     	;# 
    69  0003                     	;# 
    70  0004                     	;# 
    71  0005                     	;# 
    72  0006                     	;# 
    73  0007                     	;# 
    74  0008                     	;# 
    75  0009                     	;# 
    76  000A                     	;# 
    77  000B                     	;# 
    78  000C                     	;# 
    79  000D                     	;# 
    80  000E                     	;# 
    81  000E                     	;# 
    82  000F                     	;# 
    83  0010                     	;# 
    84  0011                     	;# 
    85  0012                     	;# 
    86  0013                     	;# 
    87  0014                     	;# 
    88  0015                     	;# 
    89  0015                     	;# 
    90  0016                     	;# 
    91  0017                     	;# 
    92  0018                     	;# 
    93  0019                     	;# 
    94  001A                     	;# 
    95  001B                     	;# 
    96  001B                     	;# 
    97  001C                     	;# 
    98  001D                     	;# 
    99  001E                     	;# 
   100  001F                     	;# 
   101  0081                     	;# 
   102  0085                     	;# 
   103  0086                     	;# 
   104  0087                     	;# 
   105  0088                     	;# 
   106  0089                     	;# 
   107  008C                     	;# 
   108  008D                     	;# 
   109  008E                     	;# 
   110  008F                     	;# 
   111  0090                     	;# 
   112  0091                     	;# 
   113  0092                     	;# 
   114  0093                     	;# 
   115  0093                     	;# 
   116  0093                     	;# 
   117  0094                     	;# 
   118  0095                     	;# 
   119  0096                     	;# 
   120  0097                     	;# 
   121  0098                     	;# 
   122  0099                     	;# 
   123  009A                     	;# 
   124  009B                     	;# 
   125  009C                     	;# 
   126  009D                     	;# 
   127  009E                     	;# 
   128  009F                     	;# 
   129  0105                     	;# 
   130  0107                     	;# 
   131  0108                     	;# 
   132  0109                     	;# 
   133  010C                     	;# 
   134  010C                     	;# 
   135  010D                     	;# 
   136  010E                     	;# 
   137  010F                     	;# 
   138  0185                     	;# 
   139  0187                     	;# 
   140  0188                     	;# 
   141  0189                     	;# 
   142  018C                     	;# 
   143  018D                     	;# 
   144  0000                     	;# 
   145  0001                     	;# 
   146  0002                     	;# 
   147  0003                     	;# 
   148  0004                     	;# 
   149  0005                     	;# 
   150  0006                     	;# 
   151  0007                     	;# 
   152  0008                     	;# 
   153  0009                     	;# 
   154  000A                     	;# 
   155  000B                     	;# 
   156  000C                     	;# 
   157  000D                     	;# 
   158  000E                     	;# 
   159  000E                     	;# 
   160  000F                     	;# 
   161  0010                     	;# 
   162  0011                     	;# 
   163  0012                     	;# 
   164  0013                     	;# 
   165  0014                     	;# 
   166  0015                     	;# 
   167  0015                     	;# 
   168  0016                     	;# 
   169  0017                     	;# 
   170  0018                     	;# 
   171  0019                     	;# 
   172  001A                     	;# 
   173  001B                     	;# 
   174  001B                     	;# 
   175  001C                     	;# 
   176  001D                     	;# 
   177  001E                     	;# 
   178  001F                     	;# 
   179  0081                     	;# 
   180  0085                     	;# 
   181  0086                     	;# 
   182  0087                     	;# 
   183  0088                     	;# 
   184  0089                     	;# 
   185  008C                     	;# 
   186  008D                     	;# 
   187  008E                     	;# 
   188  008F                     	;# 
   189  0090                     	;# 
   190  0091                     	;# 
   191  0092                     	;# 
   192  0093                     	;# 
   193  0093                     	;# 
   194  0093                     	;# 
   195  0094                     	;# 
   196  0095                     	;# 
   197  0096                     	;# 
   198  0097                     	;# 
   199  0098                     	;# 
   200  0099                     	;# 
   201  009A                     	;# 
   202  009B                     	;# 
   203  009C                     	;# 
   204  009D                     	;# 
   205  009E                     	;# 
   206  009F                     	;# 
   207  0105                     	;# 
   208  0107                     	;# 
   209  0108                     	;# 
   210  0109                     	;# 
   211  010C                     	;# 
   212  010C                     	;# 
   213  010D                     	;# 
   214  010E                     	;# 
   215  010F                     	;# 
   216  0185                     	;# 
   217  0187                     	;# 
   218  0188                     	;# 
   219  0189                     	;# 
   220  018C                     	;# 
   221  018D                     	;# 
   222                           
   223                           	psect	idataBANK0
   224  07FA                     __pidataBANK0:
   225                           
   226                           ;initializer for _grabar
   227  07FA  3472               	retlw	114
   228                           
   229                           	psect	idataBANK1
   230  07FB                     __pidataBANK1:
   231                           
   232                           ;initializer for _reproducir
   233  07FB  3470               	retlw	112
   234  000E                     _TMR1	set	14
   235  000D                     _PIR2bits	set	13
   236  000B                     _INTCONbits	set	11
   237  001B                     _CCPR2L	set	27
   238  0015                     _CCPR1L	set	21
   239  000D                     _PIR2	set	13
   240  000C                     _PIR1	set	12
   241  0009                     _PORTE	set	9
   242  0008                     _PORTD	set	8
   243  0007                     _PORTC	set	7
   244  0006                     _PORTB	set	6
   245  0005                     _PORTA	set	5
   246  000B                     _INTCON	set	11
   247  0018                     _RCSTAbits	set	24
   248  001D                     _CCP2CON	set	29
   249  0017                     _CCP1CON	set	23
   250  0012                     _T2CON	set	18
   251  000E                     _TMR1L	set	14
   252  000F                     _TMR1H	set	15
   253  0010                     _T1CON	set	16
   254  001A                     _RCREG	set	26
   255  001F                     _ADCON0bits	set	31
   256  001E                     _ADRESH	set	30
   257  000C                     _PIR1bits	set	12
   258  0001                     _TMR0	set	1
   259  003B                     _RC3	set	59
   260  0060                     _TMR1IF	set	96
   261  005A                     _T0IF	set	90
   262  008D                     _PIE2	set	141
   263  008C                     _PIE1	set	140
   264  009A                     _SPBRGH	set	154
   265  0099                     _SPBRG	set	153
   266  0098                     _TXSTAbits	set	152
   267  008F                     _OSCCONbits	set	143
   268  009F                     _ADCON1bits	set	159
   269  0092                     _PR2	set	146
   270  0081                     _OPTION_REG	set	129
   271  0089                     _TRISE	set	137
   272  0088                     _TRISD	set	136
   273  0087                     _TRISC	set	135
   274  0086                     _TRISB	set	134
   275  0085                     _TRISA	set	133
   276  010C                     _EEDATA	set	268
   277  010C                     _EEDAT	set	268
   278  010D                     _EEADR	set	269
   279  018D                     _EECON2	set	397
   280  018C                     _EECON1bits	set	396
   281  0187                     _BAUDCTLbits	set	391
   282  0189                     _ANSELH	set	393
   283  0188                     _ANSEL	set	392
   284                           
   285                           	psect	cinit
   286  0011                     start_initialization:	
   287                           ; #config settings
   288                           
   289  0011                     __initialization:
   290                           
   291                           ; Initialize objects allocated to BANK1
   292  0011  1683               	bsf	3,5	;RP0=1, select bank1
   293  0012  1303               	bcf	3,6	;RP1=0, select bank1
   294  0013  120A  118A  27FB  120A  118A  	fcall	__pidataBANK1	;fetch initializer
   295  0018  00A6               	movwf	__pdataBANK1& (0+127)
   296                           
   297                           ; Initialize objects allocated to BANK0
   298  0019  1283               	bcf	3,5	;RP0=0, select bank0
   299  001A  1303               	bcf	3,6	;RP1=0, select bank0
   300  001B  120A  118A  27FA  120A  118A  	fcall	__pidataBANK0	;fetch initializer
   301  0020  00EF               	movwf	__pdataBANK0& (0+127)
   302                           
   303                           ; Clear objects allocated to BANK1
   304  0021  1683               	bsf	3,5	;RP0=1, select bank1
   305  0022  1303               	bcf	3,6	;RP1=0, select bank1
   306  0023  01A0               	clrf	__pbssBANK1& (0+127)
   307  0024  01A1               	clrf	(__pbssBANK1+1)& (0+127)
   308  0025  01A2               	clrf	(__pbssBANK1+2)& (0+127)
   309  0026  01A3               	clrf	(__pbssBANK1+3)& (0+127)
   310  0027  01A4               	clrf	(__pbssBANK1+4)& (0+127)
   311  0028  01A5               	clrf	(__pbssBANK1+5)& (0+127)
   312                           
   313                           ; Clear objects allocated to BANK0
   314  0029  1283               	bcf	3,5	;RP0=0, select bank0
   315  002A  1303               	bcf	3,6	;RP1=0, select bank0
   316  002B  01EB               	clrf	__pbssBANK0& (0+127)
   317  002C  01EC               	clrf	(__pbssBANK0+1)& (0+127)
   318  002D  01ED               	clrf	(__pbssBANK0+2)& (0+127)
   319  002E  01EE               	clrf	(__pbssBANK0+3)& (0+127)
   320                           
   321                           ; Clear objects allocated to COMMON
   322  002F  01F0               	clrf	__pbssCOMMON& (0+127)
   323  0030  01F1               	clrf	(__pbssCOMMON+1)& (0+127)
   324  0031  01F2               	clrf	(__pbssCOMMON+2)& (0+127)
   325  0032  01F3               	clrf	(__pbssCOMMON+3)& (0+127)
   326  0033  01F4               	clrf	(__pbssCOMMON+4)& (0+127)
   327  0034  01F5               	clrf	(__pbssCOMMON+5)& (0+127)
   328  0035                     end_of_initialization:	
   329                           ;End of C runtime variable initialization code
   330                           
   331  0035                     __end_of__initialization:
   332  0035  0183               	clrf	3
   333  0036  120A  158A  2D16   	ljmp	_main	;jump to C main() function
   334                           
   335                           	psect	bssCOMMON
   336  0070                     __pbssCOMMON:
   337  0070                     _var3:
   338  0070                     	ds	1
   339  0071                     _multiplex:
   340  0071                     	ds	1
   341  0072                     _order:
   342  0072                     	ds	1
   343  0073                     _REC:
   344  0073                     	ds	1
   345  0074                     _valor:
   346  0074                     	ds	1
   347  0075                     _flagint:
   348  0075                     	ds	1
   349                           
   350                           	psect	bssBANK0
   351  006B                     __pbssBANK0:
   352  006B                     _orderp:
   353  006B                     	ds	1
   354  006C                     _var2:
   355  006C                     	ds	1
   356  006D                     _var1:
   357  006D                     	ds	1
   358  006E                     _var0:
   359  006E                     	ds	1
   360                           
   361                           	psect	dataBANK0
   362  006F                     __pdataBANK0:
   363  006F                     _grabar:
   364  006F                     	ds	1
   365                           
   366                           	psect	bssBANK1
   367  00A0                     __pbssBANK1:
   368  00A0                     _PWMEX2:
   369  00A0                     	ds	2
   370  00A2                     _PWMEX:
   371  00A2                     	ds	2
   372  00A4                     _contpwm:
   373  00A4                     	ds	2
   374                           
   375                           	psect	dataBANK1
   376  00A6                     __pdataBANK1:
   377  00A6                     _reproducir:
   378  00A6                     	ds	1
   379                           
   380                           	psect	cstackCOMMON
   381  0076                     __pcstackCOMMON:
   382  0076                     ?_setup:
   383  0076                     ?_chselect:	
   384                           ; 1 bytes @ 0x0
   385                           
   386  0076                     ?_ctrservo:	
   387                           ; 1 bytes @ 0x0
   388                           
   389  0076                     ?_record:	
   390                           ; 1 bytes @ 0x0
   391                           
   392  0076                     ?_play:	
   393                           ; 1 bytes @ 0x0
   394                           
   395  0076                     ?_readEEPROM:	
   396                           ; 1 bytes @ 0x0
   397                           
   398  0076                     ?_isr:	
   399                           ; 1 bytes @ 0x0
   400                           
   401  0076                     ??_isr:	
   402                           ; 1 bytes @ 0x0
   403                           
   404  0076                     ?_main:	
   405                           ; 1 bytes @ 0x0
   406                           
   407                           
   408                           ; 1 bytes @ 0x0
   409  0076                     	ds	6
   410                           
   411                           	psect	cstackBANK0
   412  0020                     __pcstackBANK0:
   413  0020                     ??_setup:
   414  0020                     ??_chselect:	
   415                           ; 1 bytes @ 0x0
   416                           
   417  0020                     ?_writeEEPROM:	
   418                           ; 1 bytes @ 0x0
   419                           
   420  0020                     ??_readEEPROM:	
   421                           ; 1 bytes @ 0x0
   422                           
   423  0020                     ?__Umul8_16:	
   424                           ; 1 bytes @ 0x0
   425                           
   426  0020                     ?___xxtofl:	
   427                           ; 2 bytes @ 0x0
   428                           
   429  0020                     writeEEPROM@data:	
   430                           ; 4 bytes @ 0x0
   431                           
   432  0020                     __Umul8_16@multiplicand:	
   433                           ; 1 bytes @ 0x0
   434                           
   435  0020                     ___xxtofl@val:	
   436                           ; 1 bytes @ 0x0
   437                           
   438                           
   439                           ; 4 bytes @ 0x0
   440  0020                     	ds	1
   441  0021                     ??_writeEEPROM:
   442  0021                     writeEEPROM@address:	
   443                           ; 1 bytes @ 0x1
   444                           
   445  0021                     readEEPROM@address:	
   446                           ; 1 bytes @ 0x1
   447                           
   448                           
   449                           ; 1 bytes @ 0x1
   450  0021                     	ds	1
   451  0022                     ??_record:
   452  0022                     ??__Umul8_16:	
   453                           ; 1 bytes @ 0x2
   454                           
   455  0022                     readEEPROM@data:	
   456                           ; 1 bytes @ 0x2
   457                           
   458                           
   459                           ; 1 bytes @ 0x2
   460  0022                     	ds	1
   461  0023                     ??_play:
   462                           
   463                           ; 1 bytes @ 0x3
   464  0023                     	ds	1
   465  0024                     ??___xxtofl:
   466  0024                     __Umul8_16@product:	
   467                           ; 1 bytes @ 0x4
   468                           
   469                           
   470                           ; 2 bytes @ 0x4
   471  0024                     	ds	2
   472  0026                     __Umul8_16@word_mpld:
   473                           
   474                           ; 2 bytes @ 0x6
   475  0026                     	ds	2
   476  0028                     __Umul8_16@multiplier:
   477  0028                     ___xxtofl@sign:	
   478                           ; 1 bytes @ 0x8
   479                           
   480                           
   481                           ; 1 bytes @ 0x8
   482  0028                     	ds	1
   483  0029                     ___xxtofl@exp:
   484                           
   485                           ; 1 bytes @ 0x9
   486  0029                     	ds	1
   487  002A                     ___xxtofl@arg:
   488                           
   489                           ; 4 bytes @ 0xA
   490  002A                     	ds	4
   491  002E                     ?___flmul:
   492  002E                     ___flmul@b:	
   493                           ; 4 bytes @ 0xE
   494                           
   495                           
   496                           ; 4 bytes @ 0xE
   497  002E                     	ds	4
   498  0032                     ___flmul@a:
   499                           
   500                           ; 4 bytes @ 0x12
   501  0032                     	ds	4
   502  0036                     ??___flmul:
   503                           
   504                           ; 1 bytes @ 0x16
   505  0036                     	ds	5
   506  003B                     ___flmul@sign:
   507                           
   508                           ; 1 bytes @ 0x1B
   509  003B                     	ds	1
   510  003C                     ___flmul@aexp:
   511                           
   512                           ; 1 bytes @ 0x1C
   513  003C                     	ds	1
   514  003D                     ___flmul@grs:
   515                           
   516                           ; 4 bytes @ 0x1D
   517  003D                     	ds	4
   518  0041                     ___flmul@bexp:
   519                           
   520                           ; 1 bytes @ 0x21
   521  0041                     	ds	1
   522  0042                     ___flmul@prod:
   523                           
   524                           ; 4 bytes @ 0x22
   525  0042                     	ds	4
   526  0046                     ___flmul@temp:
   527                           
   528                           ; 2 bytes @ 0x26
   529  0046                     	ds	2
   530  0048                     ?___fladd:
   531  0048                     ___fladd@b:	
   532                           ; 4 bytes @ 0x28
   533                           
   534                           
   535                           ; 4 bytes @ 0x28
   536  0048                     	ds	4
   537  004C                     ___fladd@a:
   538                           
   539                           ; 4 bytes @ 0x2C
   540  004C                     	ds	4
   541  0050                     ??___fladd:
   542                           
   543                           ; 1 bytes @ 0x30
   544  0050                     	ds	8
   545  0058                     ___fladd@signs:
   546                           
   547                           ; 1 bytes @ 0x38
   548  0058                     	ds	1
   549  0059                     ___fladd@aexp:
   550                           
   551                           ; 1 bytes @ 0x39
   552  0059                     	ds	1
   553  005A                     ___fladd@bexp:
   554                           
   555                           ; 1 bytes @ 0x3A
   556  005A                     	ds	1
   557  005B                     ___fladd@grs:
   558                           
   559                           ; 1 bytes @ 0x3B
   560  005B                     	ds	1
   561  005C                     ?___fltol:
   562  005C                     ___fltol@f1:	
   563                           ; 4 bytes @ 0x3C
   564                           
   565                           
   566                           ; 4 bytes @ 0x3C
   567  005C                     	ds	4
   568  0060                     ??___fltol:
   569                           
   570                           ; 1 bytes @ 0x40
   571  0060                     	ds	5
   572  0065                     ___fltol@sign1:
   573                           
   574                           ; 1 bytes @ 0x45
   575  0065                     	ds	1
   576  0066                     ___fltol@exp1:
   577                           
   578                           ; 1 bytes @ 0x46
   579  0066                     	ds	1
   580  0067                     ??_ctrservo:
   581                           
   582                           ; 1 bytes @ 0x47
   583  0067                     	ds	4
   584  006B                     ??_main:
   585                           
   586                           	psect	maintext
   587  0D16                     __pmaintext:	
   588                           ; 1 bytes @ 0x4B
   589 ;;
   590 ;;Main: autosize = 0, tempsize = 0, incstack = 0, save=0
   591 ;;
   592 ;; *************** function _main *****************
   593 ;; Defined at:
   594 ;;		line 136 in file "MainP2.c"
   595 ;; Parameters:    Size  Location     Type
   596 ;;		None
   597 ;; Auto vars:     Size  Location     Type
   598 ;;		None
   599 ;; Return value:  Size  Location     Type
   600 ;;                  1    wreg      void 
   601 ;; Registers used:
   602 ;;		wreg, fsr0l, fsr0h, status,2, status,0, btemp+1, pclath, cstack
   603 ;; Tracked objects:
   604 ;;		On entry : B00/0
   605 ;;		On exit  : 0/0
   606 ;;		Unchanged: 0/0
   607 ;; Data sizes:     COMMON   BANK0   BANK1   BANK3   BANK2
   608 ;;      Params:         0       0       0       0       0
   609 ;;      Locals:         0       0       0       0       0
   610 ;;      Temps:          0       0       0       0       0
   611 ;;      Totals:         0       0       0       0       0
   612 ;;Total ram usage:        0 bytes
   613 ;; Hardware stack levels required when called: 4
   614 ;; This function calls:
   615 ;;		_chselect
   616 ;;		_ctrservo
   617 ;;		_play
   618 ;;		_record
   619 ;;		_setup
   620 ;; This function is called by:
   621 ;;		Startup code after reset
   622 ;; This function uses a non-reentrant model
   623 ;;
   624                           
   625                           
   626                           ;psect for function _main
   627  0D16                     _main:
   628  0D16                     l2606:	
   629                           ;incstack = 0
   630                           ; Regs used in _main: [wreg-fsr0h+status,2+status,0+btemp+1+pclath+cstack]
   631                           
   632                           
   633                           ;MainP2.c: 137:     setup();
   634  0D16  120A  158A  2576  120A  158A  	fcall	_setup
   635  0D1B                     l2608:
   636                           
   637                           ;MainP2.c: 138:     ADCON0bits.GO = 1;
   638  0D1B  1283               	bcf	3,5	;RP0=0, select bank0
   639  0D1C  1303               	bcf	3,6	;RP1=0, select bank0
   640  0D1D  149F               	bsf	31,1	;volatile
   641  0D1E                     l2610:
   642                           
   643                           ;MainP2.c: 149:     chselect();
   644  0D1E  120A  158A  2542  120A  158A  	fcall	_chselect
   645  0D23                     l2612:
   646                           
   647                           ;MainP2.c: 150:     ctrservo();
   648  0D23  120A  118A  2622  120A  158A  	fcall	_ctrservo
   649  0D28                     l2614:
   650                           
   651                           ;MainP2.c: 151:     if(REC == grabar){
   652  0D28  3072               	movlw	114
   653  0D29  0673               	xorwf	_REC,w
   654  0D2A  1D03               	btfss	3,2
   655  0D2B  2D2D               	goto	u2821
   656  0D2C  2D2E               	goto	u2820
   657  0D2D                     u2821:
   658  0D2D  2D33               	goto	l2618
   659  0D2E                     u2820:
   660  0D2E                     l2616:
   661                           
   662                           ;MainP2.c: 152:         record();
   663  0D2E  120A  158A  26DA  120A  158A  	fcall	_record
   664  0D33                     l2618:
   665                           
   666                           ;MainP2.c: 154:     if(REC == reproducir){
   667  0D33  3070               	movlw	112
   668  0D34  0673               	xorwf	_REC,w
   669  0D35  1D03               	btfss	3,2
   670  0D36  2D38               	goto	u2831
   671  0D37  2D39               	goto	u2830
   672  0D38                     u2831:
   673  0D38  2D1E               	goto	l2610
   674  0D39                     u2830:
   675  0D39                     l2620:
   676                           
   677                           ;MainP2.c: 155:         play();
   678  0D39  120A  158A  2764  120A  158A  	fcall	_play
   679  0D3E  2D1E               	goto	l2610
   680  0D3F  120A  118A  280E   	ljmp	start
   681  0D42                     __end_of_main:
   682                           
   683                           	psect	text1
   684  0D76                     __ptext1:	
   685 ;; *************** function _setup *****************
   686 ;; Defined at:
   687 ;;		line 162 in file "MainP2.c"
   688 ;; Parameters:    Size  Location     Type
   689 ;;		None
   690 ;; Auto vars:     Size  Location     Type
   691 ;;		None
   692 ;; Return value:  Size  Location     Type
   693 ;;                  1    wreg      void 
   694 ;; Registers used:
   695 ;;		wreg, status,2, status,0
   696 ;; Tracked objects:
   697 ;;		On entry : 0/0
   698 ;;		On exit  : 0/0
   699 ;;		Unchanged: 0/0
   700 ;; Data sizes:     COMMON   BANK0   BANK1   BANK3   BANK2
   701 ;;      Params:         0       0       0       0       0
   702 ;;      Locals:         0       0       0       0       0
   703 ;;      Temps:          0       1       0       0       0
   704 ;;      Totals:         0       1       0       0       0
   705 ;;Total ram usage:        1 bytes
   706 ;; Hardware stack levels used: 1
   707 ;; Hardware stack levels required when called: 1
   708 ;; This function calls:
   709 ;;		Nothing
   710 ;; This function is called by:
   711 ;;		_main
   712 ;; This function uses a non-reentrant model
   713 ;;
   714                           
   715                           
   716                           ;psect for function _setup
   717  0D76                     _setup:
   718  0D76                     l2470:	
   719                           ;incstack = 0
   720                           ; Regs used in _setup: [wreg+status,2+status,0]
   721                           
   722                           
   723                           ;MainP2.c: 164:   ANSEL = 0b00000111;
   724  0D76  3007               	movlw	7
   725  0D77  1683               	bsf	3,5	;RP0=1, select bank3
   726  0D78  1703               	bsf	3,6	;RP1=1, select bank3
   727  0D79  0088               	movwf	8	;volatile
   728  0D7A                     l2472:
   729                           
   730                           ;MainP2.c: 165:   ANSELH = 0b00000000;
   731  0D7A  0189               	clrf	9	;volatile
   732  0D7B                     l2474:
   733                           
   734                           ;MainP2.c: 167:   TRISA = 0b00000111;
   735  0D7B  3007               	movlw	7
   736  0D7C  1683               	bsf	3,5	;RP0=1, select bank1
   737  0D7D  1303               	bcf	3,6	;RP1=0, select bank1
   738  0D7E  0085               	movwf	5	;volatile
   739                           
   740                           ;MainP2.c: 168:   TRISB = 0b00000000;
   741  0D7F  0186               	clrf	6	;volatile
   742  0D80                     l2476:
   743                           
   744                           ;MainP2.c: 169:   TRISC = 0b10000110;
   745  0D80  3086               	movlw	134
   746  0D81  0087               	movwf	7	;volatile
   747  0D82                     l2478:
   748                           
   749                           ;MainP2.c: 170:   TRISD = 0x00;
   750  0D82  0188               	clrf	8	;volatile
   751  0D83                     l2480:
   752                           
   753                           ;MainP2.c: 171:   TRISE = 0x00;
   754  0D83  0189               	clrf	9	;volatile
   755  0D84                     l2482:
   756                           
   757                           ;MainP2.c: 178:   OPTION_REG = 0x83;
   758  0D84  3083               	movlw	131
   759  0D85  0081               	movwf	1	;volatile
   760  0D86                     l2484:
   761                           
   762                           ;MainP2.c: 179:   TMR0 = 6;
   763  0D86  3006               	movlw	6
   764  0D87  1283               	bcf	3,5	;RP0=0, select bank0
   765  0D88  1303               	bcf	3,6	;RP1=0, select bank0
   766  0D89  0081               	movwf	1	;volatile
   767  0D8A                     l2486:
   768                           
   769                           ;MainP2.c: 182:   T1CON = 0x00;
   770  0D8A  0190               	clrf	16	;volatile
   771  0D8B                     l2488:
   772                           
   773                           ;MainP2.c: 183:   TMR1IF = 0;
   774  0D8B  100C               	bcf	12,0	;volatile
   775                           
   776                           ;MainP2.c: 184:   TMR1H = 0xFC;
   777  0D8C  30FC               	movlw	252
   778  0D8D  008F               	movwf	15	;volatile
   779                           
   780                           ;MainP2.c: 185:   TMR1L = 0x18;
   781  0D8E  3018               	movlw	24
   782  0D8F  008E               	movwf	14	;volatile
   783                           
   784                           ;MainP2.c: 192:   T2CON = 0x26;
   785  0D90  3026               	movlw	38
   786  0D91  0092               	movwf	18	;volatile
   787                           
   788                           ;MainP2.c: 193:   PR2 = 250;
   789  0D92  30FA               	movlw	250
   790  0D93  1683               	bsf	3,5	;RP0=1, select bank1
   791  0D94  1303               	bcf	3,6	;RP1=0, select bank1
   792  0D95  0092               	movwf	18	;volatile
   793  0D96                     l2490:
   794                           
   795                           ;MainP2.c: 197:   ADCON0bits.CHS= 1;
   796  0D96  1283               	bcf	3,5	;RP0=0, select bank0
   797  0D97  1303               	bcf	3,6	;RP1=0, select bank0
   798  0D98  081F               	movf	31,w	;volatile
   799  0D99  39C3               	andlw	-61
   800  0D9A  3804               	iorlw	4
   801  0D9B  009F               	movwf	31	;volatile
   802  0D9C                     l2492:
   803                           
   804                           ;MainP2.c: 198:   _delay((unsigned long)((100)*(4000000/4000000.0)));
   805  0D9C  3020               	movlw	32
   806  0D9D  1283               	bcf	3,5	;RP0=0, select bank0
   807  0D9E  1303               	bcf	3,6	;RP1=0, select bank0
   808  0D9F  00A0               	movwf	??_setup
   809  0DA0                     u2847:
   810  0DA0  0BA0               	decfsz	??_setup,f
   811  0DA1  2DA0               	goto	u2847
   812  0DA2  0000               	nop
   813  0DA3                     l2494:
   814                           
   815                           ;MainP2.c: 200:   ADCON0bits.ADON = 1;
   816  0DA3  1283               	bcf	3,5	;RP0=0, select bank0
   817  0DA4  1303               	bcf	3,6	;RP1=0, select bank0
   818  0DA5  141F               	bsf	31,0	;volatile
   819                           
   820                           ;MainP2.c: 201:   ADCON0bits.ADCS = 1;
   821  0DA6  081F               	movf	31,w	;volatile
   822  0DA7  393F               	andlw	-193
   823  0DA8  3840               	iorlw	64
   824  0DA9  009F               	movwf	31	;volatile
   825  0DAA                     l2496:
   826                           
   827                           ;MainP2.c: 202:   ADCON1bits.ADFM = 0;
   828  0DAA  1683               	bsf	3,5	;RP0=1, select bank1
   829  0DAB  1303               	bcf	3,6	;RP1=0, select bank1
   830  0DAC  139F               	bcf	31,7	;volatile
   831  0DAD                     l2498:
   832                           
   833                           ;MainP2.c: 203:   ADCON1bits.VCFG0 = 0;
   834  0DAD  121F               	bcf	31,4	;volatile
   835  0DAE                     l2500:
   836                           
   837                           ;MainP2.c: 204:   ADCON1bits.VCFG1 = 0;
   838  0DAE  129F               	bcf	31,5	;volatile
   839                           
   840                           ;MainP2.c: 207:   OSCCONbits.IRCF = 0b110;
   841  0DAF  080F               	movf	15,w	;volatile
   842  0DB0  398F               	andlw	-113
   843  0DB1  3860               	iorlw	96
   844  0DB2  008F               	movwf	15	;volatile
   845  0DB3                     l2502:
   846                           
   847                           ;MainP2.c: 208:   OSCCONbits.SCS = 1;
   848  0DB3  140F               	bsf	15,0	;volatile
   849  0DB4                     l2504:
   850                           
   851                           ;MainP2.c: 211:   CCP1CON = 0b00001100;
   852  0DB4  300C               	movlw	12
   853  0DB5  1283               	bcf	3,5	;RP0=0, select bank0
   854  0DB6  1303               	bcf	3,6	;RP1=0, select bank0
   855  0DB7  0097               	movwf	23	;volatile
   856  0DB8                     l2506:
   857                           
   858                           ;MainP2.c: 212:   CCP2CON = 0b00001100;
   859  0DB8  300C               	movlw	12
   860  0DB9  009D               	movwf	29	;volatile
   861  0DBA                     l2508:
   862                           
   863                           ;MainP2.c: 217:   TXSTAbits.SYNC = 0;
   864  0DBA  1683               	bsf	3,5	;RP0=1, select bank1
   865  0DBB  1303               	bcf	3,6	;RP1=0, select bank1
   866  0DBC  1218               	bcf	24,4	;volatile
   867  0DBD                     l2510:
   868                           
   869                           ;MainP2.c: 218:   TXSTAbits.BRGH = 1;
   870  0DBD  1518               	bsf	24,2	;volatile
   871  0DBE                     l2512:
   872                           
   873                           ;MainP2.c: 219:   TXSTAbits.TX9 = 0;
   874  0DBE  1318               	bcf	24,6	;volatile
   875  0DBF                     l2514:
   876                           
   877                           ;MainP2.c: 220:   TXSTAbits.TXEN= 1;
   878  0DBF  1698               	bsf	24,5	;volatile
   879  0DC0                     l2516:
   880                           
   881                           ;MainP2.c: 221:   RCSTAbits.SPEN = 1;
   882  0DC0  1283               	bcf	3,5	;RP0=0, select bank0
   883  0DC1  1303               	bcf	3,6	;RP1=0, select bank0
   884  0DC2  1798               	bsf	24,7	;volatile
   885  0DC3                     l2518:
   886                           
   887                           ;MainP2.c: 224:   RCSTAbits.RX9 = 0;
   888  0DC3  1318               	bcf	24,6	;volatile
   889  0DC4                     l2520:
   890                           
   891                           ;MainP2.c: 225:   RCSTAbits.CREN = 1;
   892  0DC4  1618               	bsf	24,4	;volatile
   893  0DC5                     l2522:
   894                           
   895                           ;MainP2.c: 228:     BAUDCTLbits.BRG16 = 0;
   896  0DC5  1683               	bsf	3,5	;RP0=1, select bank3
   897  0DC6  1703               	bsf	3,6	;RP1=1, select bank3
   898  0DC7  1187               	bcf	7,3	;volatile
   899  0DC8                     l2524:
   900                           
   901                           ;MainP2.c: 229:     SPBRG =25;
   902  0DC8  3019               	movlw	25
   903  0DC9  1683               	bsf	3,5	;RP0=1, select bank1
   904  0DCA  1303               	bcf	3,6	;RP1=0, select bank1
   905  0DCB  0099               	movwf	25	;volatile
   906  0DCC                     l2526:
   907                           
   908                           ;MainP2.c: 230:     SPBRGH = 1;
   909  0DCC  3001               	movlw	1
   910  0DCD  009A               	movwf	26	;volatile
   911  0DCE                     l2528:
   912                           
   913                           ;MainP2.c: 234:   INTCON = 0b11100000;
   914  0DCE  30E0               	movlw	224
   915  0DCF  008B               	movwf	11	;volatile
   916  0DD0                     l2530:
   917                           
   918                           ;MainP2.c: 235:   PIE1 = 0b01100011;
   919  0DD0  3063               	movlw	99
   920  0DD1  008C               	movwf	12	;volatile
   921  0DD2                     l2532:
   922                           
   923                           ;MainP2.c: 236:   PIE2 = 0b00000000;
   924  0DD2  018D               	clrf	13	;volatile
   925  0DD3                     l2534:
   926                           
   927                           ;MainP2.c: 240:   PORTA = 0x00;
   928  0DD3  1283               	bcf	3,5	;RP0=0, select bank0
   929  0DD4  1303               	bcf	3,6	;RP1=0, select bank0
   930  0DD5  0185               	clrf	5	;volatile
   931  0DD6                     l2536:
   932                           
   933                           ;MainP2.c: 241:   PORTB = 0x00;
   934  0DD6  0186               	clrf	6	;volatile
   935  0DD7                     l2538:
   936                           
   937                           ;MainP2.c: 242:   PORTC = 0x00;
   938  0DD7  0187               	clrf	7	;volatile
   939  0DD8                     l2540:
   940                           
   941                           ;MainP2.c: 243:   PORTD = 0x00;
   942  0DD8  0188               	clrf	8	;volatile
   943  0DD9                     l2542:
   944                           
   945                           ;MainP2.c: 244:   PORTE = 0x00;
   946  0DD9  0189               	clrf	9	;volatile
   947  0DDA                     l2544:
   948                           
   949                           ;MainP2.c: 245:   PIR1 = 0x00;
   950  0DDA  018C               	clrf	12	;volatile
   951  0DDB                     l2546:
   952                           
   953                           ;MainP2.c: 246:   PIR2 = 0x00;
   954  0DDB  018D               	clrf	13	;volatile
   955  0DDC                     l2548:
   956                           
   957                           ;MainP2.c: 247:   TRISC = 0b10000000;
   958  0DDC  3080               	movlw	128
   959  0DDD  1683               	bsf	3,5	;RP0=1, select bank1
   960  0DDE  1303               	bcf	3,6	;RP1=0, select bank1
   961  0DDF  0087               	movwf	7	;volatile
   962  0DE0                     l2550:
   963                           
   964                           ;MainP2.c: 248:   T1CON = 0x01;
   965  0DE0  3001               	movlw	1
   966  0DE1  1283               	bcf	3,5	;RP0=0, select bank0
   967  0DE2  1303               	bcf	3,6	;RP1=0, select bank0
   968  0DE3  0090               	movwf	16	;volatile
   969  0DE4                     l176:
   970  0DE4  0008               	return
   971  0DE5                     __end_of_setup:
   972                           
   973                           	psect	text2
   974  0EDA                     __ptext2:	
   975 ;; *************** function _record *****************
   976 ;; Defined at:
   977 ;;		line 284 in file "MainP2.c"
   978 ;; Parameters:    Size  Location     Type
   979 ;;		None
   980 ;; Auto vars:     Size  Location     Type
   981 ;;		None
   982 ;; Return value:  Size  Location     Type
   983 ;;                  1    wreg      void 
   984 ;; Registers used:
   985 ;;		wreg, fsr0l, fsr0h, status,2, status,0, pclath, cstack
   986 ;; Tracked objects:
   987 ;;		On entry : 0/0
   988 ;;		On exit  : 0/0
   989 ;;		Unchanged: 0/0
   990 ;; Data sizes:     COMMON   BANK0   BANK1   BANK3   BANK2
   991 ;;      Params:         0       0       0       0       0
   992 ;;      Locals:         0       0       0       0       0
   993 ;;      Temps:          0       2       0       0       0
   994 ;;      Totals:         0       2       0       0       0
   995 ;;Total ram usage:        2 bytes
   996 ;; Hardware stack levels used: 1
   997 ;; Hardware stack levels required when called: 2
   998 ;; This function calls:
   999 ;;		_writeEEPROM
  1000 ;; This function is called by:
  1001 ;;		_main
  1002 ;; This function uses a non-reentrant model
  1003 ;;
  1004                           
  1005                           
  1006                           ;psect for function _record
  1007  0EDA                     _record:
  1008  0EDA                     l2554:	
  1009                           ;incstack = 0
  1010                           ; Regs used in _record: [wreg-fsr0h+status,2+status,0+pclath+cstack]
  1011                           
  1012                           
  1013                           ;MainP2.c: 285:     REC = 0;
  1014  0EDA  01F3               	clrf	_REC
  1015                           
  1016                           ;MainP2.c: 287:     switch (order){
  1017  0EDB  2F4E               	goto	l2570
  1018  0EDC                     l2556:
  1019                           
  1020                           ;MainP2.c: 289:             writeEEPROM(0x00, var0);
  1021  0EDC  086E               	movf	_var0,w
  1022  0EDD  00A2               	movwf	??_record
  1023  0EDE  0822               	movf	??_record,w
  1024  0EDF  00A0               	movwf	writeEEPROM@data
  1025  0EE0  3000               	movlw	0
  1026  0EE1  120A  158A  24C9  120A  158A  	fcall	_writeEEPROM
  1027                           
  1028                           ;MainP2.c: 290:             writeEEPROM(0x01, var1);
  1029  0EE6  1283               	bcf	3,5	;RP0=0, select bank0
  1030  0EE7  1303               	bcf	3,6	;RP1=0, select bank0
  1031  0EE8  086D               	movf	_var1,w
  1032  0EE9  00A2               	movwf	??_record
  1033  0EEA  0822               	movf	??_record,w
  1034  0EEB  00A0               	movwf	writeEEPROM@data
  1035  0EEC  3001               	movlw	1
  1036  0EED  120A  158A  24C9  120A  158A  	fcall	_writeEEPROM
  1037                           
  1038                           ;MainP2.c: 291:             writeEEPROM(0x02, var2);
  1039  0EF2  1283               	bcf	3,5	;RP0=0, select bank0
  1040  0EF3  1303               	bcf	3,6	;RP1=0, select bank0
  1041  0EF4  086C               	movf	_var2,w
  1042  0EF5  00A2               	movwf	??_record
  1043  0EF6  0822               	movf	??_record,w
  1044  0EF7  00A0               	movwf	writeEEPROM@data
  1045  0EF8  3002               	movlw	2
  1046  0EF9  120A  158A  24C9  120A  158A  	fcall	_writeEEPROM
  1047  0EFE                     l2558:
  1048                           
  1049                           ;MainP2.c: 292:             order=1;
  1050  0EFE  01F2               	clrf	_order
  1051  0EFF  0AF2               	incf	_order,f
  1052                           
  1053                           ;MainP2.c: 293:             break;
  1054  0F00  2F63               	goto	l196
  1055  0F01                     l2560:
  1056                           
  1057                           ;MainP2.c: 295:             writeEEPROM(0x03, var0);
  1058  0F01  086E               	movf	_var0,w
  1059  0F02  00A2               	movwf	??_record
  1060  0F03  0822               	movf	??_record,w
  1061  0F04  00A0               	movwf	writeEEPROM@data
  1062  0F05  3003               	movlw	3
  1063  0F06  120A  158A  24C9  120A  158A  	fcall	_writeEEPROM
  1064                           
  1065                           ;MainP2.c: 296:             writeEEPROM(0x04, var1);
  1066  0F0B  1283               	bcf	3,5	;RP0=0, select bank0
  1067  0F0C  1303               	bcf	3,6	;RP1=0, select bank0
  1068  0F0D  086D               	movf	_var1,w
  1069  0F0E  00A2               	movwf	??_record
  1070  0F0F  0822               	movf	??_record,w
  1071  0F10  00A0               	movwf	writeEEPROM@data
  1072  0F11  3004               	movlw	4
  1073  0F12  120A  158A  24C9  120A  158A  	fcall	_writeEEPROM
  1074                           
  1075                           ;MainP2.c: 297:             writeEEPROM(0x05, var2);
  1076  0F17  1283               	bcf	3,5	;RP0=0, select bank0
  1077  0F18  1303               	bcf	3,6	;RP1=0, select bank0
  1078  0F19  086C               	movf	_var2,w
  1079  0F1A  00A2               	movwf	??_record
  1080  0F1B  0822               	movf	??_record,w
  1081  0F1C  00A0               	movwf	writeEEPROM@data
  1082  0F1D  3005               	movlw	5
  1083  0F1E  120A  158A  24C9  120A  158A  	fcall	_writeEEPROM
  1084  0F23                     l2562:
  1085                           
  1086                           ;MainP2.c: 298:             order=2;
  1087  0F23  3002               	movlw	2
  1088  0F24  1283               	bcf	3,5	;RP0=0, select bank0
  1089  0F25  1303               	bcf	3,6	;RP1=0, select bank0
  1090  0F26  00A2               	movwf	??_record
  1091  0F27  0822               	movf	??_record,w
  1092  0F28  00F2               	movwf	_order
  1093                           
  1094                           ;MainP2.c: 299:             break;
  1095  0F29  2F63               	goto	l196
  1096  0F2A                     l2564:
  1097                           
  1098                           ;MainP2.c: 301:             writeEEPROM(0x06, var0);
  1099  0F2A  086E               	movf	_var0,w
  1100  0F2B  00A2               	movwf	??_record
  1101  0F2C  0822               	movf	??_record,w
  1102  0F2D  00A0               	movwf	writeEEPROM@data
  1103  0F2E  3006               	movlw	6
  1104  0F2F  120A  158A  24C9  120A  158A  	fcall	_writeEEPROM
  1105                           
  1106                           ;MainP2.c: 302:             writeEEPROM(0x07, var1);
  1107  0F34  1283               	bcf	3,5	;RP0=0, select bank0
  1108  0F35  1303               	bcf	3,6	;RP1=0, select bank0
  1109  0F36  086D               	movf	_var1,w
  1110  0F37  00A2               	movwf	??_record
  1111  0F38  0822               	movf	??_record,w
  1112  0F39  00A0               	movwf	writeEEPROM@data
  1113  0F3A  3007               	movlw	7
  1114  0F3B  120A  158A  24C9  120A  158A  	fcall	_writeEEPROM
  1115                           
  1116                           ;MainP2.c: 303:             writeEEPROM(0x08, var2);
  1117  0F40  1283               	bcf	3,5	;RP0=0, select bank0
  1118  0F41  1303               	bcf	3,6	;RP1=0, select bank0
  1119  0F42  086C               	movf	_var2,w
  1120  0F43  00A2               	movwf	??_record
  1121  0F44  0822               	movf	??_record,w
  1122  0F45  00A0               	movwf	writeEEPROM@data
  1123  0F46  3008               	movlw	8
  1124  0F47  120A  158A  24C9  120A  158A  	fcall	_writeEEPROM
  1125  0F4C                     l2566:
  1126                           
  1127                           ;MainP2.c: 304:             order=0;
  1128  0F4C  01F2               	clrf	_order
  1129                           
  1130                           ;MainP2.c: 305:             break;
  1131  0F4D  2F63               	goto	l196
  1132  0F4E                     l2570:
  1133  0F4E  0872               	movf	_order,w
  1134  0F4F  1283               	bcf	3,5	;RP0=0, select bank0
  1135  0F50  1303               	bcf	3,6	;RP1=0, select bank0
  1136  0F51  00A2               	movwf	??_record
  1137  0F52  01A3               	clrf	??_record+1
  1138                           
  1139                           ; Switch on 2 bytes has been partitioned into a top level switch of size 1, and 1 sub-sw
      +                          itches
  1140                           ; Switch size 1, requested type "simple"
  1141                           ; Number of cases is 1, Range of values is 0 to 0
  1142                           ; switch strategies available:
  1143                           ; Name         Instructions Cycles
  1144                           ; simple_byte            4     3 (average)
  1145                           ; direct_byte           11     8 (fixed)
  1146                           ; jumptable            260     6 (fixed)
  1147                           ;	Chosen strategy is simple_byte
  1148  0F53  0823               	movf	??_record+1,w
  1149  0F54  3A00               	xorlw	0	; case 0
  1150  0F55  1903               	skipnz
  1151  0F56  2F58               	goto	l2702
  1152  0F57  2F63               	goto	l196
  1153  0F58                     l2702:
  1154                           
  1155                           ; Switch size 1, requested type "simple"
  1156                           ; Number of cases is 3, Range of values is 0 to 2
  1157                           ; switch strategies available:
  1158                           ; Name         Instructions Cycles
  1159                           ; simple_byte           10     6 (average)
  1160                           ; direct_byte           17     8 (fixed)
  1161                           ; jumptable            260     6 (fixed)
  1162                           ;	Chosen strategy is simple_byte
  1163  0F58  0822               	movf	??_record,w
  1164  0F59  3A00               	xorlw	0	; case 0
  1165  0F5A  1903               	skipnz
  1166  0F5B  2EDC               	goto	l2556
  1167  0F5C  3A01               	xorlw	1	; case 1
  1168  0F5D  1903               	skipnz
  1169  0F5E  2F01               	goto	l2560
  1170  0F5F  3A03               	xorlw	3	; case 2
  1171  0F60  1903               	skipnz
  1172  0F61  2F2A               	goto	l2564
  1173  0F62  2F63               	goto	l196
  1174  0F63                     l196:
  1175  0F63  0008               	return
  1176  0F64                     __end_of_record:
  1177                           
  1178                           	psect	text3
  1179  0CC9                     __ptext3:	
  1180 ;; *************** function _writeEEPROM *****************
  1181 ;; Defined at:
  1182 ;;		line 344 in file "MainP2.c"
  1183 ;; Parameters:    Size  Location     Type
  1184 ;;  address         1    wreg     unsigned char 
  1185 ;;  data            1    0[BANK0 ] unsigned char 
  1186 ;; Auto vars:     Size  Location     Type
  1187 ;;  address         1    1[BANK0 ] unsigned char 
  1188 ;; Return value:  Size  Location     Type
  1189 ;;                  1    wreg      unsigned char 
  1190 ;; Registers used:
  1191 ;;		wreg
  1192 ;; Tracked objects:
  1193 ;;		On entry : 0/0
  1194 ;;		On exit  : 0/0
  1195 ;;		Unchanged: 0/0
  1196 ;; Data sizes:     COMMON   BANK0   BANK1   BANK3   BANK2
  1197 ;;      Params:         0       1       0       0       0
  1198 ;;      Locals:         0       1       0       0       0
  1199 ;;      Temps:          0       0       0       0       0
  1200 ;;      Totals:         0       2       0       0       0
  1201 ;;Total ram usage:        2 bytes
  1202 ;; Hardware stack levels used: 1
  1203 ;; Hardware stack levels required when called: 1
  1204 ;; This function calls:
  1205 ;;		Nothing
  1206 ;; This function is called by:
  1207 ;;		_record
  1208 ;; This function uses a non-reentrant model
  1209 ;;
  1210                           
  1211                           
  1212                           ;psect for function _writeEEPROM
  1213  0CC9                     _writeEEPROM:
  1214                           
  1215                           ;incstack = 0
  1216                           ; Regs used in _writeEEPROM: [wreg]
  1217                           ;writeEEPROM@address stored from wreg
  1218  0CC9  1283               	bcf	3,5	;RP0=0, select bank0
  1219  0CCA  1303               	bcf	3,6	;RP1=0, select bank0
  1220  0CCB  00A1               	movwf	writeEEPROM@address
  1221  0CCC                     l2308:
  1222                           
  1223                           ;MainP2.c: 345:     EEADR = address;
  1224  0CCC  0821               	movf	writeEEPROM@address,w
  1225  0CCD  1283               	bcf	3,5	;RP0=0, select bank2
  1226  0CCE  1703               	bsf	3,6	;RP1=1, select bank2
  1227  0CCF  008D               	movwf	13	;volatile
  1228                           
  1229                           ;MainP2.c: 346:     EEDAT = data;
  1230  0CD0  1283               	bcf	3,5	;RP0=0, select bank0
  1231  0CD1  1303               	bcf	3,6	;RP1=0, select bank0
  1232  0CD2  0820               	movf	writeEEPROM@data,w
  1233  0CD3  1283               	bcf	3,5	;RP0=0, select bank2
  1234  0CD4  1703               	bsf	3,6	;RP1=1, select bank2
  1235  0CD5  008C               	movwf	12	;volatile
  1236  0CD6                     l2310:
  1237                           
  1238                           ;MainP2.c: 348:     EECON1bits.EEPGD = 0;
  1239  0CD6  1683               	bsf	3,5	;RP0=1, select bank3
  1240  0CD7  1703               	bsf	3,6	;RP1=1, select bank3
  1241  0CD8  138C               	bcf	12,7	;volsfr
  1242  0CD9                     l2312:
  1243                           
  1244                           ;MainP2.c: 349:     EECON1bits.WREN = 1;
  1245  0CD9  150C               	bsf	12,2	;volsfr
  1246  0CDA                     l2314:
  1247                           
  1248                           ;MainP2.c: 351:     INTCONbits.GIE = 0;
  1249  0CDA  138B               	bcf	11,7	;volatile
  1250                           
  1251                           ;MainP2.c: 353:     EECON2 = 0x55;
  1252  0CDB  3055               	movlw	85
  1253  0CDC  008D               	movwf	13	;volsfr
  1254                           
  1255                           ;MainP2.c: 354:     EECON2 = 0xAA;
  1256  0CDD  30AA               	movlw	170
  1257  0CDE  008D               	movwf	13	;volsfr
  1258  0CDF                     l2316:
  1259                           
  1260                           ;MainP2.c: 356:     EECON1bits.WR = 1;
  1261  0CDF  148C               	bsf	12,1	;volsfr
  1262  0CE0                     l208:	
  1263                           ;MainP2.c: 358:     while(PIR2bits.EEIF == 0);
  1264                           
  1265  0CE0  1283               	bcf	3,5	;RP0=0, select bank0
  1266  0CE1  1303               	bcf	3,6	;RP1=0, select bank0
  1267  0CE2  1E0D               	btfss	13,4	;volatile
  1268  0CE3  2CE5               	goto	u2441
  1269  0CE4  2CE6               	goto	u2440
  1270  0CE5                     u2441:
  1271  0CE5  2CE0               	goto	l208
  1272  0CE6                     u2440:
  1273  0CE6                     l210:
  1274                           
  1275                           ;MainP2.c: 359:     PIR2bits.EEIF = 0;
  1276  0CE6  120D               	bcf	13,4	;volatile
  1277                           
  1278                           ;MainP2.c: 361:     EECON1bits.WREN = 0;
  1279  0CE7  1683               	bsf	3,5	;RP0=1, select bank3
  1280  0CE8  1703               	bsf	3,6	;RP1=1, select bank3
  1281  0CE9  110C               	bcf	12,2	;volsfr
  1282                           
  1283                           ;MainP2.c: 363:     INTCONbits.GIE = 1;
  1284  0CEA  178B               	bsf	11,7	;volatile
  1285  0CEB                     l2318:
  1286                           
  1287                           ;MainP2.c: 365: return EECON1bits.WRERR;;	Return value of _writeEEPROM is never used
  1288  0CEB  080C               	movf	12,w	;volsfr
  1289  0CEC                     l211:
  1290  0CEC  0008               	return
  1291  0CED                     __end_of_writeEEPROM:
  1292                           
  1293                           	psect	text4
  1294  0F64                     __ptext4:	
  1295 ;; *************** function _play *****************
  1296 ;; Defined at:
  1297 ;;		line 309 in file "MainP2.c"
  1298 ;; Parameters:    Size  Location     Type
  1299 ;;		None
  1300 ;; Auto vars:     Size  Location     Type
  1301 ;;		None
  1302 ;; Return value:  Size  Location     Type
  1303 ;;                  1    wreg      void 
  1304 ;; Registers used:
  1305 ;;		wreg, fsr0l, fsr0h, status,2, status,0, pclath, cstack
  1306 ;; Tracked objects:
  1307 ;;		On entry : 0/0
  1308 ;;		On exit  : 0/0
  1309 ;;		Unchanged: 0/0
  1310 ;; Data sizes:     COMMON   BANK0   BANK1   BANK3   BANK2
  1311 ;;      Params:         0       0       0       0       0
  1312 ;;      Locals:         0       0       0       0       0
  1313 ;;      Temps:          0       2       0       0       0
  1314 ;;      Totals:         0       2       0       0       0
  1315 ;;Total ram usage:        2 bytes
  1316 ;; Hardware stack levels used: 1
  1317 ;; Hardware stack levels required when called: 2
  1318 ;; This function calls:
  1319 ;;		_readEEPROM
  1320 ;; This function is called by:
  1321 ;;		_main
  1322 ;; This function uses a non-reentrant model
  1323 ;;
  1324                           
  1325                           
  1326                           ;psect for function _play
  1327  0F64                     _play:
  1328  0F64                     l2576:	
  1329                           ;incstack = 0
  1330                           ; Regs used in _play: [wreg-fsr0h+status,2+status,0+pclath+cstack]
  1331                           
  1332                           
  1333                           ;MainP2.c: 310:     REC = 0;
  1334  0F64  01F3               	clrf	_REC
  1335                           
  1336                           ;MainP2.c: 312:     switch (orderp){
  1337  0F65  2FE7               	goto	l2600
  1338  0F66                     l200:	
  1339                           ;MainP2.c: 313:         case (0):
  1340                           
  1341                           
  1342                           ;MainP2.c: 314:             ADCON0bits.ADON = 0;
  1343  0F66  101F               	bcf	31,0	;volatile
  1344  0F67                     l2578:
  1345                           
  1346                           ;MainP2.c: 315:             var0 = readEEPROM(0x00);
  1347  0F67  3000               	movlw	0
  1348  0F68  120A  118A  27E5  120A  158A  	fcall	_readEEPROM
  1349  0F6D  1283               	bcf	3,5	;RP0=0, select bank0
  1350  0F6E  1303               	bcf	3,6	;RP1=0, select bank0
  1351  0F6F  00A3               	movwf	??_play
  1352  0F70  0823               	movf	??_play,w
  1353  0F71  00EE               	movwf	_var0
  1354                           
  1355                           ;MainP2.c: 316:             var1 = readEEPROM(0x01);
  1356  0F72  3001               	movlw	1
  1357  0F73  120A  118A  27E5  120A  158A  	fcall	_readEEPROM
  1358  0F78  1283               	bcf	3,5	;RP0=0, select bank0
  1359  0F79  1303               	bcf	3,6	;RP1=0, select bank0
  1360  0F7A  00A3               	movwf	??_play
  1361  0F7B  0823               	movf	??_play,w
  1362  0F7C  00ED               	movwf	_var1
  1363                           
  1364                           ;MainP2.c: 317:             var2 = readEEPROM(0x02);
  1365  0F7D  3002               	movlw	2
  1366  0F7E  120A  118A  27E5  120A  158A  	fcall	_readEEPROM
  1367  0F83  1283               	bcf	3,5	;RP0=0, select bank0
  1368  0F84  1303               	bcf	3,6	;RP1=0, select bank0
  1369  0F85  00A3               	movwf	??_play
  1370  0F86  0823               	movf	??_play,w
  1371  0F87  00EC               	movwf	_var2
  1372  0F88                     l2580:
  1373                           
  1374                           ;MainP2.c: 318:             orderp=1;
  1375  0F88  01EB               	clrf	_orderp
  1376  0F89  0AEB               	incf	_orderp,f
  1377                           
  1378                           ;MainP2.c: 319:             break;
  1379  0F8A  2FFF               	goto	l205
  1380  0F8B                     l2582:
  1381                           
  1382                           ;MainP2.c: 321:             var0 = readEEPROM(0x03);
  1383  0F8B  3003               	movlw	3
  1384  0F8C  120A  118A  27E5  120A  158A  	fcall	_readEEPROM
  1385  0F91  1283               	bcf	3,5	;RP0=0, select bank0
  1386  0F92  1303               	bcf	3,6	;RP1=0, select bank0
  1387  0F93  00A3               	movwf	??_play
  1388  0F94  0823               	movf	??_play,w
  1389  0F95  00EE               	movwf	_var0
  1390                           
  1391                           ;MainP2.c: 322:             var1 = readEEPROM(0x04);
  1392  0F96  3004               	movlw	4
  1393  0F97  120A  118A  27E5  120A  158A  	fcall	_readEEPROM
  1394  0F9C  1283               	bcf	3,5	;RP0=0, select bank0
  1395  0F9D  1303               	bcf	3,6	;RP1=0, select bank0
  1396  0F9E  00A3               	movwf	??_play
  1397  0F9F  0823               	movf	??_play,w
  1398  0FA0  00ED               	movwf	_var1
  1399                           
  1400                           ;MainP2.c: 323:             var2 = readEEPROM(0x05);
  1401  0FA1  3005               	movlw	5
  1402  0FA2  120A  118A  27E5  120A  158A  	fcall	_readEEPROM
  1403  0FA7  1283               	bcf	3,5	;RP0=0, select bank0
  1404  0FA8  1303               	bcf	3,6	;RP1=0, select bank0
  1405  0FA9  00A3               	movwf	??_play
  1406  0FAA  0823               	movf	??_play,w
  1407  0FAB  00EC               	movwf	_var2
  1408  0FAC                     l2584:
  1409                           
  1410                           ;MainP2.c: 324:             orderp=2;
  1411  0FAC  3002               	movlw	2
  1412  0FAD  00A3               	movwf	??_play
  1413  0FAE  0823               	movf	??_play,w
  1414  0FAF  00EB               	movwf	_orderp
  1415                           
  1416                           ;MainP2.c: 325:             break;
  1417  0FB0  2FFF               	goto	l205
  1418  0FB1                     l2586:
  1419                           
  1420                           ;MainP2.c: 327:             var0 = readEEPROM(0x06);
  1421  0FB1  3006               	movlw	6
  1422  0FB2  120A  118A  27E5  120A  158A  	fcall	_readEEPROM
  1423  0FB7  1283               	bcf	3,5	;RP0=0, select bank0
  1424  0FB8  1303               	bcf	3,6	;RP1=0, select bank0
  1425  0FB9  00A3               	movwf	??_play
  1426  0FBA  0823               	movf	??_play,w
  1427  0FBB  00EE               	movwf	_var0
  1428                           
  1429                           ;MainP2.c: 328:             var1 = readEEPROM(0x07);
  1430  0FBC  3007               	movlw	7
  1431  0FBD  120A  118A  27E5  120A  158A  	fcall	_readEEPROM
  1432  0FC2  1283               	bcf	3,5	;RP0=0, select bank0
  1433  0FC3  1303               	bcf	3,6	;RP1=0, select bank0
  1434  0FC4  00A3               	movwf	??_play
  1435  0FC5  0823               	movf	??_play,w
  1436  0FC6  00ED               	movwf	_var1
  1437                           
  1438                           ;MainP2.c: 329:             var2 = readEEPROM(0x08);
  1439  0FC7  3008               	movlw	8
  1440  0FC8  120A  118A  27E5  120A  158A  	fcall	_readEEPROM
  1441  0FCD  1283               	bcf	3,5	;RP0=0, select bank0
  1442  0FCE  1303               	bcf	3,6	;RP1=0, select bank0
  1443  0FCF  00A3               	movwf	??_play
  1444  0FD0  0823               	movf	??_play,w
  1445  0FD1  00EC               	movwf	_var2
  1446  0FD2                     l2588:
  1447                           
  1448                           ;MainP2.c: 330:             orderp=3;
  1449  0FD2  3003               	movlw	3
  1450  0FD3  00A3               	movwf	??_play
  1451  0FD4  0823               	movf	??_play,w
  1452  0FD5  00EB               	movwf	_orderp
  1453                           
  1454                           ;MainP2.c: 331:             break;
  1455  0FD6  2FFF               	goto	l205
  1456  0FD7                     l2590:
  1457                           
  1458                           ;MainP2.c: 333:             ADCON0bits.CHS= 1;
  1459  0FD7  081F               	movf	31,w	;volatile
  1460  0FD8  39C3               	andlw	-61
  1461  0FD9  3804               	iorlw	4
  1462  0FDA  009F               	movwf	31	;volatile
  1463  0FDB                     l2592:
  1464                           
  1465                           ;MainP2.c: 334:              _delay((unsigned long)((100)*(4000000/4000000.0)));
  1466  0FDB  3020               	movlw	32
  1467  0FDC  1283               	bcf	3,5	;RP0=0, select bank0
  1468  0FDD  1303               	bcf	3,6	;RP1=0, select bank0
  1469  0FDE  00A3               	movwf	??_play
  1470  0FDF                     u2857:
  1471  0FDF  0BA3               	decfsz	??_play,f
  1472  0FE0  2FDF               	goto	u2857
  1473  0FE1  0000               	nop
  1474  0FE2                     l2594:
  1475                           
  1476                           ;MainP2.c: 335:             ADCON0bits.ADON = 1;
  1477  0FE2  1283               	bcf	3,5	;RP0=0, select bank0
  1478  0FE3  1303               	bcf	3,6	;RP1=0, select bank0
  1479  0FE4  141F               	bsf	31,0	;volatile
  1480  0FE5                     l2596:
  1481                           
  1482                           ;MainP2.c: 336:             orderp = 0;
  1483  0FE5  01EB               	clrf	_orderp
  1484                           
  1485                           ;MainP2.c: 337:             break;
  1486  0FE6  2FFF               	goto	l205
  1487  0FE7                     l2600:
  1488  0FE7  1283               	bcf	3,5	;RP0=0, select bank0
  1489  0FE8  1303               	bcf	3,6	;RP1=0, select bank0
  1490  0FE9  086B               	movf	_orderp,w
  1491  0FEA  00A3               	movwf	??_play
  1492  0FEB  01A4               	clrf	??_play+1
  1493                           
  1494                           ; Switch on 2 bytes has been partitioned into a top level switch of size 1, and 1 sub-sw
      +                          itches
  1495                           ; Switch size 1, requested type "simple"
  1496                           ; Number of cases is 1, Range of values is 0 to 0
  1497                           ; switch strategies available:
  1498                           ; Name         Instructions Cycles
  1499                           ; simple_byte            4     3 (average)
  1500                           ; direct_byte           11     8 (fixed)
  1501                           ; jumptable            260     6 (fixed)
  1502                           ;	Chosen strategy is simple_byte
  1503  0FEC  0824               	movf	??_play+1,w
  1504  0FED  3A00               	xorlw	0	; case 0
  1505  0FEE  1903               	skipnz
  1506  0FEF  2FF1               	goto	l2704
  1507  0FF0  2FFF               	goto	l205
  1508  0FF1                     l2704:
  1509                           
  1510                           ; Switch size 1, requested type "simple"
  1511                           ; Number of cases is 4, Range of values is 0 to 3
  1512                           ; switch strategies available:
  1513                           ; Name         Instructions Cycles
  1514                           ; simple_byte           13     7 (average)
  1515                           ; direct_byte           20     8 (fixed)
  1516                           ; jumptable            260     6 (fixed)
  1517                           ;	Chosen strategy is simple_byte
  1518  0FF1  0823               	movf	??_play,w
  1519  0FF2  3A00               	xorlw	0	; case 0
  1520  0FF3  1903               	skipnz
  1521  0FF4  2F66               	goto	l200
  1522  0FF5  3A01               	xorlw	1	; case 1
  1523  0FF6  1903               	skipnz
  1524  0FF7  2F8B               	goto	l2582
  1525  0FF8  3A03               	xorlw	3	; case 2
  1526  0FF9  1903               	skipnz
  1527  0FFA  2FB1               	goto	l2586
  1528  0FFB  3A01               	xorlw	1	; case 3
  1529  0FFC  1903               	skipnz
  1530  0FFD  2FD7               	goto	l2590
  1531  0FFE  2FFF               	goto	l205
  1532  0FFF                     l205:
  1533  0FFF  0008               	return
  1534  1000                     __end_of_play:
  1535                           
  1536                           	psect	text5
  1537  07E5                     __ptext5:	
  1538 ;; *************** function _readEEPROM *****************
  1539 ;; Defined at:
  1540 ;;		line 368 in file "MainP2.c"
  1541 ;; Parameters:    Size  Location     Type
  1542 ;;  address         1    wreg     unsigned char 
  1543 ;; Auto vars:     Size  Location     Type
  1544 ;;  address         1    1[BANK0 ] unsigned char 
  1545 ;;  data            1    2[BANK0 ] unsigned char 
  1546 ;; Return value:  Size  Location     Type
  1547 ;;                  1    wreg      unsigned char 
  1548 ;; Registers used:
  1549 ;;		wreg
  1550 ;; Tracked objects:
  1551 ;;		On entry : 0/0
  1552 ;;		On exit  : 0/0
  1553 ;;		Unchanged: 0/0
  1554 ;; Data sizes:     COMMON   BANK0   BANK1   BANK3   BANK2
  1555 ;;      Params:         0       0       0       0       0
  1556 ;;      Locals:         0       2       0       0       0
  1557 ;;      Temps:          0       1       0       0       0
  1558 ;;      Totals:         0       3       0       0       0
  1559 ;;Total ram usage:        3 bytes
  1560 ;; Hardware stack levels used: 1
  1561 ;; Hardware stack levels required when called: 1
  1562 ;; This function calls:
  1563 ;;		Nothing
  1564 ;; This function is called by:
  1565 ;;		_play
  1566 ;; This function uses a non-reentrant model
  1567 ;;
  1568                           
  1569                           
  1570                           ;psect for function _readEEPROM
  1571  07E5                     _readEEPROM:
  1572                           
  1573                           ;incstack = 0
  1574                           ; Regs used in _readEEPROM: [wreg]
  1575                           ;readEEPROM@address stored from wreg
  1576  07E5  1283               	bcf	3,5	;RP0=0, select bank0
  1577  07E6  1303               	bcf	3,6	;RP1=0, select bank0
  1578  07E7  00A1               	movwf	readEEPROM@address
  1579  07E8                     l2322:
  1580                           
  1581                           ;MainP2.c: 370:     EEADR = address;
  1582  07E8  0821               	movf	readEEPROM@address,w
  1583  07E9  1283               	bcf	3,5	;RP0=0, select bank2
  1584  07EA  1703               	bsf	3,6	;RP1=1, select bank2
  1585  07EB  008D               	movwf	13	;volatile
  1586  07EC                     l2324:
  1587                           
  1588                           ;MainP2.c: 371:     EECON1bits.EEPGD = 0;
  1589  07EC  1683               	bsf	3,5	;RP0=1, select bank3
  1590  07ED  1703               	bsf	3,6	;RP1=1, select bank3
  1591  07EE  138C               	bcf	12,7	;volsfr
  1592  07EF                     l2326:
  1593                           
  1594                           ;MainP2.c: 372:     EECON1bits.RD =1 ;
  1595  07EF  140C               	bsf	12,0	;volsfr
  1596                           
  1597                           ;MainP2.c: 373:     uint8_t data = EEDATA;
  1598  07F0  1283               	bcf	3,5	;RP0=0, select bank2
  1599  07F1  1703               	bsf	3,6	;RP1=1, select bank2
  1600  07F2  080C               	movf	12,w	;volatile
  1601  07F3  1283               	bcf	3,5	;RP0=0, select bank0
  1602  07F4  1303               	bcf	3,6	;RP1=0, select bank0
  1603  07F5  00A0               	movwf	??_readEEPROM
  1604  07F6  0820               	movf	??_readEEPROM,w
  1605  07F7  00A2               	movwf	readEEPROM@data
  1606                           
  1607                           ;MainP2.c: 374:     return data;
  1608  07F8  0822               	movf	readEEPROM@data,w
  1609  07F9                     l214:
  1610  07F9  0008               	return
  1611  07FA                     __end_of_readEEPROM:
  1612                           
  1613                           	psect	text6
  1614  0622                     __ptext6:	
  1615 ;; *************** function _ctrservo *****************
  1616 ;; Defined at:
  1617 ;;		line 252 in file "MainP2.c"
  1618 ;; Parameters:    Size  Location     Type
  1619 ;;		None
  1620 ;; Auto vars:     Size  Location     Type
  1621 ;;		None
  1622 ;; Return value:  Size  Location     Type
  1623 ;;                  1    wreg      void 
  1624 ;; Registers used:
  1625 ;;		wreg, status,2, status,0, btemp+1, pclath, cstack
  1626 ;; Tracked objects:
  1627 ;;		On entry : 0/0
  1628 ;;		On exit  : 0/0
  1629 ;;		Unchanged: 0/0
  1630 ;; Data sizes:     COMMON   BANK0   BANK1   BANK3   BANK2
  1631 ;;      Params:         0       0       0       0       0
  1632 ;;      Locals:         0       0       0       0       0
  1633 ;;      Temps:          0       4       0       0       0
  1634 ;;      Totals:         0       4       0       0       0
  1635 ;;Total ram usage:        4 bytes
  1636 ;; Hardware stack levels used: 1
  1637 ;; Hardware stack levels required when called: 3
  1638 ;; This function calls:
  1639 ;;		___fladd
  1640 ;;		___flmul
  1641 ;;		___fltol
  1642 ;;		___xxtofl
  1643 ;; This function is called by:
  1644 ;;		_main
  1645 ;; This function uses a non-reentrant model
  1646 ;;
  1647                           
  1648                           
  1649                           ;psect for function _ctrservo
  1650  0622                     _ctrservo:
  1651  0622                     l2552:	
  1652                           ;incstack = 0
  1653                           ; Regs used in _ctrservo: [wreg+status,2+status,0+btemp+1+pclath+cstack]
  1654                           
  1655                           
  1656                           ;MainP2.c: 253:    CCPR1L = ((0.247 * var1) + 62);
  1657  0622  1283               	bcf	3,5	;RP0=0, select bank0
  1658  0623  1303               	bcf	3,6	;RP1=0, select bank0
  1659  0624  086D               	movf	_var1,w
  1660  0625  00E7               	movwf	??_ctrservo
  1661  0626  01E8               	clrf	??_ctrservo+1
  1662  0627  01E9               	clrf	??_ctrservo+2
  1663  0628  01EA               	clrf	??_ctrservo+3
  1664  0629  086A               	movf	??_ctrservo+3,w
  1665  062A  00A3               	movwf	___xxtofl@val+3
  1666  062B  0869               	movf	??_ctrservo+2,w
  1667  062C  00A2               	movwf	___xxtofl@val+2
  1668  062D  0868               	movf	??_ctrservo+1,w
  1669  062E  00A1               	movwf	___xxtofl@val+1
  1670  062F  0867               	movf	??_ctrservo,w
  1671  0630  00A0               	movwf	___xxtofl@val
  1672  0631  3001               	movlw	1
  1673  0632  120A  118A  2729  120A  118A  	fcall	___xxtofl
  1674  0637  1283               	bcf	3,5	;RP0=0, select bank0
  1675  0638  1303               	bcf	3,6	;RP1=0, select bank0
  1676  0639  0823               	movf	?___xxtofl+3,w
  1677  063A  00B5               	movwf	___flmul@a+3
  1678  063B  0822               	movf	?___xxtofl+2,w
  1679  063C  00B4               	movwf	___flmul@a+2
  1680  063D  0821               	movf	?___xxtofl+1,w
  1681  063E  00B3               	movwf	___flmul@a+1
  1682  063F  0820               	movf	?___xxtofl,w
  1683  0640  00B2               	movwf	___flmul@a
  1684  0641  303E               	movlw	62
  1685  0642  00B1               	movwf	___flmul@b+3
  1686  0643  307C               	movlw	124
  1687  0644  00B0               	movwf	___flmul@b+2
  1688  0645  30ED               	movlw	237
  1689  0646  00AF               	movwf	___flmul@b+1
  1690  0647  3091               	movlw	145
  1691  0648  00AE               	movwf	___flmul@b
  1692  0649  120A  118A  2039  120A  118A  	fcall	___flmul
  1693  064E  1283               	bcf	3,5	;RP0=0, select bank0
  1694  064F  1303               	bcf	3,6	;RP1=0, select bank0
  1695  0650  0831               	movf	?___flmul+3,w
  1696  0651  00CF               	movwf	___fladd@a+3
  1697  0652  0830               	movf	?___flmul+2,w
  1698  0653  00CE               	movwf	___fladd@a+2
  1699  0654  082F               	movf	?___flmul+1,w
  1700  0655  00CD               	movwf	___fladd@a+1
  1701  0656  082E               	movf	?___flmul,w
  1702  0657  00CC               	movwf	___fladd@a
  1703  0658  3042               	movlw	66
  1704  0659  00CB               	movwf	___fladd@b+3
  1705  065A  3078               	movlw	120
  1706  065B  00CA               	movwf	___fladd@b+2
  1707  065C  3000               	movlw	0
  1708  065D  00C9               	movwf	___fladd@b+1
  1709  065E  3000               	movlw	0
  1710  065F  00C8               	movwf	___fladd@b
  1711  0660  120A  118A  239A  120A  118A  	fcall	___fladd
  1712  0665  1283               	bcf	3,5	;RP0=0, select bank0
  1713  0666  1303               	bcf	3,6	;RP1=0, select bank0
  1714  0667  084B               	movf	?___fladd+3,w
  1715  0668  00DF               	movwf	___fltol@f1+3
  1716  0669  084A               	movf	?___fladd+2,w
  1717  066A  00DE               	movwf	___fltol@f1+2
  1718  066B  0849               	movf	?___fladd+1,w
  1719  066C  00DD               	movwf	___fltol@f1+1
  1720  066D  0848               	movf	?___fladd,w
  1721  066E  00DC               	movwf	___fltol@f1
  1722  066F  120A  158A  265E  120A  118A  	fcall	___fltol
  1723  0674  1283               	bcf	3,5	;RP0=0, select bank0
  1724  0675  1303               	bcf	3,6	;RP1=0, select bank0
  1725  0676  085C               	movf	?___fltol,w
  1726  0677  0095               	movwf	21	;volatile
  1727                           
  1728                           ;MainP2.c: 254:    CCPR2L = ((0.247 * var0) + 62);
  1729  0678  086E               	movf	_var0,w
  1730  0679  00E7               	movwf	??_ctrservo
  1731  067A  01E8               	clrf	??_ctrservo+1
  1732  067B  01E9               	clrf	??_ctrservo+2
  1733  067C  01EA               	clrf	??_ctrservo+3
  1734  067D  086A               	movf	??_ctrservo+3,w
  1735  067E  00A3               	movwf	___xxtofl@val+3
  1736  067F  0869               	movf	??_ctrservo+2,w
  1737  0680  00A2               	movwf	___xxtofl@val+2
  1738  0681  0868               	movf	??_ctrservo+1,w
  1739  0682  00A1               	movwf	___xxtofl@val+1
  1740  0683  0867               	movf	??_ctrservo,w
  1741  0684  00A0               	movwf	___xxtofl@val
  1742  0685  3001               	movlw	1
  1743  0686  120A  118A  2729  120A  118A  	fcall	___xxtofl
  1744  068B  1283               	bcf	3,5	;RP0=0, select bank0
  1745  068C  1303               	bcf	3,6	;RP1=0, select bank0
  1746  068D  0823               	movf	?___xxtofl+3,w
  1747  068E  00B5               	movwf	___flmul@a+3
  1748  068F  0822               	movf	?___xxtofl+2,w
  1749  0690  00B4               	movwf	___flmul@a+2
  1750  0691  0821               	movf	?___xxtofl+1,w
  1751  0692  00B3               	movwf	___flmul@a+1
  1752  0693  0820               	movf	?___xxtofl,w
  1753  0694  00B2               	movwf	___flmul@a
  1754  0695  303E               	movlw	62
  1755  0696  00B1               	movwf	___flmul@b+3
  1756  0697  307C               	movlw	124
  1757  0698  00B0               	movwf	___flmul@b+2
  1758  0699  30ED               	movlw	237
  1759  069A  00AF               	movwf	___flmul@b+1
  1760  069B  3091               	movlw	145
  1761  069C  00AE               	movwf	___flmul@b
  1762  069D  120A  118A  2039  120A  118A  	fcall	___flmul
  1763  06A2  1283               	bcf	3,5	;RP0=0, select bank0
  1764  06A3  1303               	bcf	3,6	;RP1=0, select bank0
  1765  06A4  0831               	movf	?___flmul+3,w
  1766  06A5  00CF               	movwf	___fladd@a+3
  1767  06A6  0830               	movf	?___flmul+2,w
  1768  06A7  00CE               	movwf	___fladd@a+2
  1769  06A8  082F               	movf	?___flmul+1,w
  1770  06A9  00CD               	movwf	___fladd@a+1
  1771  06AA  082E               	movf	?___flmul,w
  1772  06AB  00CC               	movwf	___fladd@a
  1773  06AC  3042               	movlw	66
  1774  06AD  00CB               	movwf	___fladd@b+3
  1775  06AE  3078               	movlw	120
  1776  06AF  00CA               	movwf	___fladd@b+2
  1777  06B0  3000               	movlw	0
  1778  06B1  00C9               	movwf	___fladd@b+1
  1779  06B2  3000               	movlw	0
  1780  06B3  00C8               	movwf	___fladd@b
  1781  06B4  120A  118A  239A  120A  118A  	fcall	___fladd
  1782  06B9  1283               	bcf	3,5	;RP0=0, select bank0
  1783  06BA  1303               	bcf	3,6	;RP1=0, select bank0
  1784  06BB  084B               	movf	?___fladd+3,w
  1785  06BC  00DF               	movwf	___fltol@f1+3
  1786  06BD  084A               	movf	?___fladd+2,w
  1787  06BE  00DE               	movwf	___fltol@f1+2
  1788  06BF  0849               	movf	?___fladd+1,w
  1789  06C0  00DD               	movwf	___fltol@f1+1
  1790  06C1  0848               	movf	?___fladd,w
  1791  06C2  00DC               	movwf	___fltol@f1
  1792  06C3  120A  158A  265E  120A  118A  	fcall	___fltol
  1793  06C8  1283               	bcf	3,5	;RP0=0, select bank0
  1794  06C9  1303               	bcf	3,6	;RP1=0, select bank0
  1795  06CA  085C               	movf	?___fltol,w
  1796  06CB  009B               	movwf	27	;volatile
  1797                           
  1798                           ;MainP2.c: 255:    PWMEX = ((3.92 * var2) + 63536);
  1799  06CC  086C               	movf	_var2,w
  1800  06CD  00E7               	movwf	??_ctrservo
  1801  06CE  01E8               	clrf	??_ctrservo+1
  1802  06CF  01E9               	clrf	??_ctrservo+2
  1803  06D0  01EA               	clrf	??_ctrservo+3
  1804  06D1  086A               	movf	??_ctrservo+3,w
  1805  06D2  00A3               	movwf	___xxtofl@val+3
  1806  06D3  0869               	movf	??_ctrservo+2,w
  1807  06D4  00A2               	movwf	___xxtofl@val+2
  1808  06D5  0868               	movf	??_ctrservo+1,w
  1809  06D6  00A1               	movwf	___xxtofl@val+1
  1810  06D7  0867               	movf	??_ctrservo,w
  1811  06D8  00A0               	movwf	___xxtofl@val
  1812  06D9  3001               	movlw	1
  1813  06DA  120A  118A  2729  120A  118A  	fcall	___xxtofl
  1814  06DF  1283               	bcf	3,5	;RP0=0, select bank0
  1815  06E0  1303               	bcf	3,6	;RP1=0, select bank0
  1816  06E1  0823               	movf	?___xxtofl+3,w
  1817  06E2  00B5               	movwf	___flmul@a+3
  1818  06E3  0822               	movf	?___xxtofl+2,w
  1819  06E4  00B4               	movwf	___flmul@a+2
  1820  06E5  0821               	movf	?___xxtofl+1,w
  1821  06E6  00B3               	movwf	___flmul@a+1
  1822  06E7  0820               	movf	?___xxtofl,w
  1823  06E8  00B2               	movwf	___flmul@a
  1824  06E9  3040               	movlw	64
  1825  06EA  00B1               	movwf	___flmul@b+3
  1826  06EB  307A               	movlw	122
  1827  06EC  00B0               	movwf	___flmul@b+2
  1828  06ED  30E1               	movlw	225
  1829  06EE  00AF               	movwf	___flmul@b+1
  1830  06EF  3048               	movlw	72
  1831  06F0  00AE               	movwf	___flmul@b
  1832  06F1  120A  118A  2039  120A  118A  	fcall	___flmul
  1833  06F6  1283               	bcf	3,5	;RP0=0, select bank0
  1834  06F7  1303               	bcf	3,6	;RP1=0, select bank0
  1835  06F8  0831               	movf	?___flmul+3,w
  1836  06F9  00CF               	movwf	___fladd@a+3
  1837  06FA  0830               	movf	?___flmul+2,w
  1838  06FB  00CE               	movwf	___fladd@a+2
  1839  06FC  082F               	movf	?___flmul+1,w
  1840  06FD  00CD               	movwf	___fladd@a+1
  1841  06FE  082E               	movf	?___flmul,w
  1842  06FF  00CC               	movwf	___fladd@a
  1843  0700  3047               	movlw	71
  1844  0701  00CB               	movwf	___fladd@b+3
  1845  0702  3078               	movlw	120
  1846  0703  00CA               	movwf	___fladd@b+2
  1847  0704  3030               	movlw	48
  1848  0705  00C9               	movwf	___fladd@b+1
  1849  0706  3000               	movlw	0
  1850  0707  00C8               	movwf	___fladd@b
  1851  0708  120A  118A  239A  120A  118A  	fcall	___fladd
  1852  070D  1283               	bcf	3,5	;RP0=0, select bank0
  1853  070E  1303               	bcf	3,6	;RP1=0, select bank0
  1854  070F  084B               	movf	?___fladd+3,w
  1855  0710  00DF               	movwf	___fltol@f1+3
  1856  0711  084A               	movf	?___fladd+2,w
  1857  0712  00DE               	movwf	___fltol@f1+2
  1858  0713  0849               	movf	?___fladd+1,w
  1859  0714  00DD               	movwf	___fltol@f1+1
  1860  0715  0848               	movf	?___fladd,w
  1861  0716  00DC               	movwf	___fltol@f1
  1862  0717  120A  158A  265E  120A  118A  	fcall	___fltol
  1863  071C  1283               	bcf	3,5	;RP0=0, select bank0
  1864  071D  1303               	bcf	3,6	;RP1=0, select bank0
  1865  071E  085D               	movf	?___fltol+1,w
  1866  071F  1683               	bsf	3,5	;RP0=1, select bank1
  1867  0720  1303               	bcf	3,6	;RP1=0, select bank1
  1868  0721  00A3               	movwf	(_PWMEX+1)^(0+128)
  1869  0722  1283               	bcf	3,5	;RP0=0, select bank0
  1870  0723  1303               	bcf	3,6	;RP1=0, select bank0
  1871  0724  085C               	movf	?___fltol,w
  1872  0725  1683               	bsf	3,5	;RP0=1, select bank1
  1873  0726  1303               	bcf	3,6	;RP1=0, select bank1
  1874  0727  00A2               	movwf	_PWMEX^(0+128)
  1875  0728                     l179:
  1876  0728  0008               	return
  1877  0729                     __end_of_ctrservo:
  1878                           
  1879                           	psect	text7
  1880  0729                     __ptext7:	
  1881 ;; *************** function ___xxtofl *****************
  1882 ;; Defined at:
  1883 ;;		line 10 in file "C:\Program Files\Microchip\xc8\v2.32\pic\sources\c90\common\xxtofl.c"
  1884 ;; Parameters:    Size  Location     Type
  1885 ;;  sign            1    wreg     unsigned char 
  1886 ;;  val             4    0[BANK0 ] long 
  1887 ;; Auto vars:     Size  Location     Type
  1888 ;;  sign            1    8[BANK0 ] unsigned char 
  1889 ;;  arg             4   10[BANK0 ] unsigned long 
  1890 ;;  exp             1    9[BANK0 ] unsigned char 
  1891 ;; Return value:  Size  Location     Type
  1892 ;;                  4    0[BANK0 ] unsigned char 
  1893 ;; Registers used:
  1894 ;;		wreg, status,2, status,0
  1895 ;; Tracked objects:
  1896 ;;		On entry : 0/0
  1897 ;;		On exit  : 0/0
  1898 ;;		Unchanged: 0/0
  1899 ;; Data sizes:     COMMON   BANK0   BANK1   BANK3   BANK2
  1900 ;;      Params:         0       4       0       0       0
  1901 ;;      Locals:         0       6       0       0       0
  1902 ;;      Temps:          0       4       0       0       0
  1903 ;;      Totals:         0      14       0       0       0
  1904 ;;Total ram usage:       14 bytes
  1905 ;; Hardware stack levels used: 1
  1906 ;; Hardware stack levels required when called: 1
  1907 ;; This function calls:
  1908 ;;		Nothing
  1909 ;; This function is called by:
  1910 ;;		_ctrservo
  1911 ;; This function uses a non-reentrant model
  1912 ;;
  1913                           
  1914                           
  1915                           ;psect for function ___xxtofl
  1916  0729                     ___xxtofl:
  1917                           
  1918                           ;incstack = 0
  1919                           ; Regs used in ___xxtofl: [wreg+status,2+status,0]
  1920                           ;___xxtofl@sign stored from wreg
  1921  0729  1283               	bcf	3,5	;RP0=0, select bank0
  1922  072A  1303               	bcf	3,6	;RP1=0, select bank0
  1923  072B  00A8               	movwf	___xxtofl@sign
  1924  072C                     l1956:
  1925  072C  0828               	movf	___xxtofl@sign,w
  1926  072D  1903               	btfsc	3,2
  1927  072E  2F30               	goto	u2181
  1928  072F  2F31               	goto	u2180
  1929  0730                     u2181:
  1930  0730  2F45               	goto	l1962
  1931  0731                     u2180:
  1932  0731                     l1958:
  1933  0731  1FA3               	btfss	___xxtofl@val+3,7
  1934  0732  2F34               	goto	u2191
  1935  0733  2F35               	goto	u2190
  1936  0734                     u2191:
  1937  0734  2F45               	goto	l1962
  1938  0735                     u2190:
  1939  0735                     l1960:
  1940  0735  0920               	comf	___xxtofl@val,w
  1941  0736  00AA               	movwf	___xxtofl@arg
  1942  0737  0921               	comf	___xxtofl@val+1,w
  1943  0738  00AB               	movwf	___xxtofl@arg+1
  1944  0739  0922               	comf	___xxtofl@val+2,w
  1945  073A  00AC               	movwf	___xxtofl@arg+2
  1946  073B  0923               	comf	___xxtofl@val+3,w
  1947  073C  00AD               	movwf	___xxtofl@arg+3
  1948  073D  0AAA               	incf	___xxtofl@arg,f
  1949  073E  1903               	skipnz
  1950  073F  0AAB               	incf	___xxtofl@arg+1,f
  1951  0740  1903               	skipnz
  1952  0741  0AAC               	incf	___xxtofl@arg+2,f
  1953  0742  1903               	skipnz
  1954  0743  0AAD               	incf	___xxtofl@arg+3,f
  1955  0744  2F4D               	goto	l733
  1956  0745                     l1962:
  1957  0745  0823               	movf	___xxtofl@val+3,w
  1958  0746  00AD               	movwf	___xxtofl@arg+3
  1959  0747  0822               	movf	___xxtofl@val+2,w
  1960  0748  00AC               	movwf	___xxtofl@arg+2
  1961  0749  0821               	movf	___xxtofl@val+1,w
  1962  074A  00AB               	movwf	___xxtofl@arg+1
  1963  074B  0820               	movf	___xxtofl@val,w
  1964  074C  00AA               	movwf	___xxtofl@arg
  1965  074D                     l733:
  1966  074D  0823               	movf	___xxtofl@val+3,w
  1967  074E  0422               	iorwf	___xxtofl@val+2,w
  1968  074F  0421               	iorwf	___xxtofl@val+1,w
  1969  0750  0420               	iorwf	___xxtofl@val,w
  1970  0751  1D03               	skipz
  1971  0752  2F54               	goto	u2201
  1972  0753  2F55               	goto	u2200
  1973  0754                     u2201:
  1974  0754  2F5E               	goto	l1968
  1975  0755                     u2200:
  1976  0755                     l1964:
  1977  0755  3000               	movlw	0
  1978  0756  00A3               	movwf	?___xxtofl+3
  1979  0757  3000               	movlw	0
  1980  0758  00A2               	movwf	?___xxtofl+2
  1981  0759  3000               	movlw	0
  1982  075A  00A1               	movwf	?___xxtofl+1
  1983  075B  3000               	movlw	0
  1984  075C  00A0               	movwf	?___xxtofl
  1985  075D  2FE4               	goto	l735
  1986  075E                     l1968:
  1987  075E  3096               	movlw	150
  1988  075F  00A4               	movwf	??___xxtofl
  1989  0760  0824               	movf	??___xxtofl,w
  1990  0761  00A9               	movwf	___xxtofl@exp
  1991  0762  2F70               	goto	l1972
  1992  0763                     l1970:
  1993  0763  3001               	movlw	1
  1994  0764  00A4               	movwf	??___xxtofl
  1995  0765  0824               	movf	??___xxtofl,w
  1996  0766  07A9               	addwf	___xxtofl@exp,f
  1997  0767  3001               	movlw	1
  1998  0768                     u2215:
  1999  0768  1003               	clrc
  2000  0769  0CAD               	rrf	___xxtofl@arg+3,f
  2001  076A  0CAC               	rrf	___xxtofl@arg+2,f
  2002  076B  0CAB               	rrf	___xxtofl@arg+1,f
  2003  076C  0CAA               	rrf	___xxtofl@arg,f
  2004  076D  3EFF               	addlw	-1
  2005  076E  1D03               	skipz
  2006  076F  2F68               	goto	u2215
  2007  0770                     l1972:
  2008  0770  30FE               	movlw	254
  2009  0771  052D               	andwf	___xxtofl@arg+3,w
  2010  0772  1D03               	btfss	3,2
  2011  0773  2F75               	goto	u2221
  2012  0774  2F76               	goto	u2220
  2013  0775                     u2221:
  2014  0775  2F63               	goto	l1970
  2015  0776                     u2220:
  2016  0776  2F92               	goto	l739
  2017  0777                     l1974:
  2018  0777  3001               	movlw	1
  2019  0778  00A4               	movwf	??___xxtofl
  2020  0779  0824               	movf	??___xxtofl,w
  2021  077A  07A9               	addwf	___xxtofl@exp,f
  2022  077B                     l1976:
  2023  077B  3001               	movlw	1
  2024  077C  07AA               	addwf	___xxtofl@arg,f
  2025  077D  3000               	movlw	0
  2026  077E  1803               	skipnc
  2027  077F  3001               	movlw	1
  2028  0780  07AB               	addwf	___xxtofl@arg+1,f
  2029  0781  3000               	movlw	0
  2030  0782  1803               	skipnc
  2031  0783  3001               	movlw	1
  2032  0784  07AC               	addwf	___xxtofl@arg+2,f
  2033  0785  3000               	movlw	0
  2034  0786  1803               	skipnc
  2035  0787  3001               	movlw	1
  2036  0788  07AD               	addwf	___xxtofl@arg+3,f
  2037  0789                     l1978:
  2038  0789  3001               	movlw	1
  2039  078A                     u2235:
  2040  078A  1003               	clrc
  2041  078B  0CAD               	rrf	___xxtofl@arg+3,f
  2042  078C  0CAC               	rrf	___xxtofl@arg+2,f
  2043  078D  0CAB               	rrf	___xxtofl@arg+1,f
  2044  078E  0CAA               	rrf	___xxtofl@arg,f
  2045  078F  3EFF               	addlw	-1
  2046  0790  1D03               	skipz
  2047  0791  2F8A               	goto	u2235
  2048  0792                     l739:
  2049  0792  30FF               	movlw	255
  2050  0793  052D               	andwf	___xxtofl@arg+3,w
  2051  0794  1D03               	btfss	3,2
  2052  0795  2F97               	goto	u2241
  2053  0796  2F98               	goto	u2240
  2054  0797                     u2241:
  2055  0797  2F77               	goto	l1974
  2056  0798                     u2240:
  2057  0798  2FA4               	goto	l1982
  2058  0799                     l1980:
  2059  0799  3001               	movlw	1
  2060  079A  02A9               	subwf	___xxtofl@exp,f
  2061  079B  3001               	movlw	1
  2062  079C  00A4               	movwf	??___xxtofl
  2063  079D                     u2255:
  2064  079D  1003               	clrc
  2065  079E  0DAA               	rlf	___xxtofl@arg,f
  2066  079F  0DAB               	rlf	___xxtofl@arg+1,f
  2067  07A0  0DAC               	rlf	___xxtofl@arg+2,f
  2068  07A1  0DAD               	rlf	___xxtofl@arg+3,f
  2069  07A2  0BA4               	decfsz	??___xxtofl,f
  2070  07A3  2F9D               	goto	u2255
  2071  07A4                     l1982:
  2072  07A4  1BAC               	btfsc	___xxtofl@arg+2,7
  2073  07A5  2FA7               	goto	u2261
  2074  07A6  2FA8               	goto	u2260
  2075  07A7                     u2261:
  2076  07A7  2FAE               	goto	l746
  2077  07A8                     u2260:
  2078  07A8                     l1984:
  2079  07A8  3002               	movlw	2
  2080  07A9  0229               	subwf	___xxtofl@exp,w
  2081  07AA  1803               	skipnc
  2082  07AB  2FAD               	goto	u2271
  2083  07AC  2FAE               	goto	u2270
  2084  07AD                     u2271:
  2085  07AD  2F99               	goto	l1980
  2086  07AE                     u2270:
  2087  07AE                     l746:
  2088  07AE  1829               	btfsc	___xxtofl@exp,0
  2089  07AF  2FB1               	goto	u2281
  2090  07B0  2FB2               	goto	u2280
  2091  07B1                     u2281:
  2092  07B1  2FBA               	goto	l747
  2093  07B2                     u2280:
  2094  07B2                     l1986:
  2095  07B2  30FF               	movlw	255
  2096  07B3  05AA               	andwf	___xxtofl@arg,f
  2097  07B4  30FF               	movlw	255
  2098  07B5  05AB               	andwf	___xxtofl@arg+1,f
  2099  07B6  307F               	movlw	127
  2100  07B7  05AC               	andwf	___xxtofl@arg+2,f
  2101  07B8  30FF               	movlw	255
  2102  07B9  05AD               	andwf	___xxtofl@arg+3,f
  2103  07BA                     l747:
  2104  07BA  1003               	clrc
  2105  07BB  0CA9               	rrf	___xxtofl@exp,f
  2106  07BC                     l1988:
  2107  07BC  0829               	movf	___xxtofl@exp,w
  2108  07BD  00A4               	movwf	??___xxtofl
  2109  07BE  01A5               	clrf	??___xxtofl+1
  2110  07BF  01A6               	clrf	??___xxtofl+2
  2111  07C0  01A7               	clrf	??___xxtofl+3
  2112  07C1  3018               	movlw	24
  2113  07C2                     u2295:
  2114  07C2  1003               	clrc
  2115  07C3  0DA4               	rlf	??___xxtofl,f
  2116  07C4  0DA5               	rlf	??___xxtofl+1,f
  2117  07C5  0DA6               	rlf	??___xxtofl+2,f
  2118  07C6  0DA7               	rlf	??___xxtofl+3,f
  2119  07C7                     u2290:
  2120  07C7  3EFF               	addlw	-1
  2121  07C8  1D03               	skipz
  2122  07C9  2FC2               	goto	u2295
  2123  07CA  0824               	movf	??___xxtofl,w
  2124  07CB  04AA               	iorwf	___xxtofl@arg,f
  2125  07CC  0825               	movf	??___xxtofl+1,w
  2126  07CD  04AB               	iorwf	___xxtofl@arg+1,f
  2127  07CE  0826               	movf	??___xxtofl+2,w
  2128  07CF  04AC               	iorwf	___xxtofl@arg+2,f
  2129  07D0  0827               	movf	??___xxtofl+3,w
  2130  07D1  04AD               	iorwf	___xxtofl@arg+3,f
  2131  07D2                     l1990:
  2132  07D2  0828               	movf	___xxtofl@sign,w
  2133  07D3  1903               	btfsc	3,2
  2134  07D4  2FD6               	goto	u2301
  2135  07D5  2FD7               	goto	u2300
  2136  07D6                     u2301:
  2137  07D6  2FDC               	goto	l1996
  2138  07D7                     u2300:
  2139  07D7                     l1992:
  2140  07D7  1FA3               	btfss	___xxtofl@val+3,7
  2141  07D8  2FDA               	goto	u2311
  2142  07D9  2FDB               	goto	u2310
  2143  07DA                     u2311:
  2144  07DA  2FDC               	goto	l1996
  2145  07DB                     u2310:
  2146  07DB                     l1994:
  2147  07DB  17AD               	bsf	___xxtofl@arg+3,7
  2148  07DC                     l1996:
  2149  07DC  082D               	movf	___xxtofl@arg+3,w
  2150  07DD  00A3               	movwf	?___xxtofl+3
  2151  07DE  082C               	movf	___xxtofl@arg+2,w
  2152  07DF  00A2               	movwf	?___xxtofl+2
  2153  07E0  082B               	movf	___xxtofl@arg+1,w
  2154  07E1  00A1               	movwf	?___xxtofl+1
  2155  07E2  082A               	movf	___xxtofl@arg,w
  2156  07E3  00A0               	movwf	?___xxtofl
  2157  07E4                     l735:
  2158  07E4  0008               	return
  2159  07E5                     __end_of___xxtofl:
  2160                           
  2161                           	psect	text8
  2162  0E5E                     __ptext8:	
  2163 ;; *************** function ___fltol *****************
  2164 ;; Defined at:
  2165 ;;		line 43 in file "C:\Program Files\Microchip\xc8\v2.32\pic\sources\c90\common\fltol.c"
  2166 ;; Parameters:    Size  Location     Type
  2167 ;;  f1              4   60[BANK0 ] unsigned char 
  2168 ;; Auto vars:     Size  Location     Type
  2169 ;;  exp1            1   70[BANK0 ] unsigned char 
  2170 ;;  sign1           1   69[BANK0 ] unsigned char 
  2171 ;; Return value:  Size  Location     Type
  2172 ;;                  4   60[BANK0 ] long 
  2173 ;; Registers used:
  2174 ;;		wreg, status,2, status,0
  2175 ;; Tracked objects:
  2176 ;;		On entry : 0/0
  2177 ;;		On exit  : 0/0
  2178 ;;		Unchanged: 0/0
  2179 ;; Data sizes:     COMMON   BANK0   BANK1   BANK3   BANK2
  2180 ;;      Params:         0       4       0       0       0
  2181 ;;      Locals:         0       2       0       0       0
  2182 ;;      Temps:          0       5       0       0       0
  2183 ;;      Totals:         0      11       0       0       0
  2184 ;;Total ram usage:       11 bytes
  2185 ;; Hardware stack levels used: 1
  2186 ;; Hardware stack levels required when called: 1
  2187 ;; This function calls:
  2188 ;;		Nothing
  2189 ;; This function is called by:
  2190 ;;		_ctrservo
  2191 ;; This function uses a non-reentrant model
  2192 ;;
  2193                           
  2194                           
  2195                           ;psect for function ___fltol
  2196  0E5E                     ___fltol:
  2197  0E5E                     l1586:	
  2198                           ;incstack = 0
  2199                           ; Regs used in ___fltol: [wreg+status,2+status,0]
  2200                           
  2201  0E5E  1003               	clrc
  2202  0E5F  1283               	bcf	3,5	;RP0=0, select bank0
  2203  0E60  1303               	bcf	3,6	;RP1=0, select bank0
  2204  0E61  0D5E               	rlf	___fltol@f1+2,w
  2205  0E62  0D5F               	rlf	___fltol@f1+3,w
  2206  0E63  00E0               	movwf	??___fltol
  2207  0E64  0860               	movf	??___fltol,w
  2208  0E65  00E6               	movwf	___fltol@exp1
  2209  0E66  0866               	movf	___fltol@exp1,w
  2210  0E67  1D03               	btfss	3,2
  2211  0E68  2E6A               	goto	u1251
  2212  0E69  2E6B               	goto	u1250
  2213  0E6A                     u1251:
  2214  0E6A  2E74               	goto	l1592
  2215  0E6B                     u1250:
  2216  0E6B                     l1588:
  2217  0E6B  3000               	movlw	0
  2218  0E6C  00DF               	movwf	?___fltol+3
  2219  0E6D  3000               	movlw	0
  2220  0E6E  00DE               	movwf	?___fltol+2
  2221  0E6F  3000               	movlw	0
  2222  0E70  00DD               	movwf	?___fltol+1
  2223  0E71  3000               	movlw	0
  2224  0E72  00DC               	movwf	?___fltol
  2225  0E73  2ED9               	goto	l486
  2226  0E74                     l1592:
  2227  0E74  085C               	movf	___fltol@f1,w
  2228  0E75  00E0               	movwf	??___fltol
  2229  0E76  085D               	movf	___fltol@f1+1,w
  2230  0E77  00E1               	movwf	??___fltol+1
  2231  0E78  085E               	movf	___fltol@f1+2,w
  2232  0E79  00E2               	movwf	??___fltol+2
  2233  0E7A  085F               	movf	___fltol@f1+3,w
  2234  0E7B  00E3               	movwf	??___fltol+3
  2235  0E7C  301F               	movlw	31
  2236  0E7D                     u1265:
  2237  0E7D  1003               	clrc
  2238  0E7E  0CE3               	rrf	??___fltol+3,f
  2239  0E7F  0CE2               	rrf	??___fltol+2,f
  2240  0E80  0CE1               	rrf	??___fltol+1,f
  2241  0E81  0CE0               	rrf	??___fltol,f
  2242  0E82                     u1260:
  2243  0E82  3EFF               	addlw	-1
  2244  0E83  1D03               	skipz
  2245  0E84  2E7D               	goto	u1265
  2246  0E85  0860               	movf	??___fltol,w
  2247  0E86  00E4               	movwf	??___fltol+4
  2248  0E87  0864               	movf	??___fltol+4,w
  2249  0E88  00E5               	movwf	___fltol@sign1
  2250  0E89                     l1594:
  2251  0E89  17DE               	bsf	___fltol@f1+2,7
  2252  0E8A                     l1596:
  2253  0E8A  30FF               	movlw	255
  2254  0E8B  05DC               	andwf	___fltol@f1,f
  2255  0E8C  30FF               	movlw	255
  2256  0E8D  05DD               	andwf	___fltol@f1+1,f
  2257  0E8E  30FF               	movlw	255
  2258  0E8F  05DE               	andwf	___fltol@f1+2,f
  2259  0E90  3000               	movlw	0
  2260  0E91  05DF               	andwf	___fltol@f1+3,f
  2261  0E92                     l1598:
  2262  0E92  3096               	movlw	150
  2263  0E93  02E6               	subwf	___fltol@exp1,f
  2264  0E94                     l1600:
  2265  0E94  1FE6               	btfss	___fltol@exp1,7
  2266  0E95  2E97               	goto	u1271
  2267  0E96  2E98               	goto	u1270
  2268  0E97                     u1271:
  2269  0E97  2EB2               	goto	l1610
  2270  0E98                     u1270:
  2271  0E98                     l1602:
  2272  0E98  0866               	movf	___fltol@exp1,w
  2273  0E99  3A80               	xorlw	128
  2274  0E9A  3E97               	addlw	151
  2275  0E9B  1803               	skipnc
  2276  0E9C  2E9E               	goto	u1281
  2277  0E9D  2E9F               	goto	u1280
  2278  0E9E                     u1281:
  2279  0E9E  2EA0               	goto	l1608
  2280  0E9F                     u1280:
  2281  0E9F  2E6B               	goto	l1588
  2282  0EA0                     l1608:
  2283  0EA0  3001               	movlw	1
  2284  0EA1                     u1295:
  2285  0EA1  1003               	clrc
  2286  0EA2  0CDF               	rrf	___fltol@f1+3,f
  2287  0EA3  0CDE               	rrf	___fltol@f1+2,f
  2288  0EA4  0CDD               	rrf	___fltol@f1+1,f
  2289  0EA5  0CDC               	rrf	___fltol@f1,f
  2290  0EA6  3EFF               	addlw	-1
  2291  0EA7  1D03               	skipz
  2292  0EA8  2EA1               	goto	u1295
  2293  0EA9  3001               	movlw	1
  2294  0EAA  00E0               	movwf	??___fltol
  2295  0EAB  0860               	movf	??___fltol,w
  2296  0EAC  07E6               	addwf	___fltol@exp1,f
  2297  0EAD  1D03               	btfss	3,2
  2298  0EAE  2EB0               	goto	u1301
  2299  0EAF  2EB1               	goto	u1300
  2300  0EB0                     u1301:
  2301  0EB0  2EA0               	goto	l1608
  2302  0EB1                     u1300:
  2303  0EB1  2EC9               	goto	l1618
  2304  0EB2                     l1610:
  2305  0EB2  3020               	movlw	32
  2306  0EB3  0266               	subwf	___fltol@exp1,w
  2307  0EB4  1C03               	skipc
  2308  0EB5  2EB7               	goto	u1311
  2309  0EB6  2EB8               	goto	u1310
  2310  0EB7                     u1311:
  2311  0EB7  2EC4               	goto	l493
  2312  0EB8                     u1310:
  2313  0EB8  2E6B               	goto	l1588
  2314  0EB9                     l1616:
  2315  0EB9  3001               	movlw	1
  2316  0EBA  00E0               	movwf	??___fltol
  2317  0EBB                     u1325:
  2318  0EBB  1003               	clrc
  2319  0EBC  0DDC               	rlf	___fltol@f1,f
  2320  0EBD  0DDD               	rlf	___fltol@f1+1,f
  2321  0EBE  0DDE               	rlf	___fltol@f1+2,f
  2322  0EBF  0DDF               	rlf	___fltol@f1+3,f
  2323  0EC0  0BE0               	decfsz	??___fltol,f
  2324  0EC1  2EBB               	goto	u1325
  2325  0EC2  3001               	movlw	1
  2326  0EC3  02E6               	subwf	___fltol@exp1,f
  2327  0EC4                     l493:
  2328  0EC4  0866               	movf	___fltol@exp1,w
  2329  0EC5  1D03               	btfss	3,2
  2330  0EC6  2EC8               	goto	u1331
  2331  0EC7  2EC9               	goto	u1330
  2332  0EC8                     u1331:
  2333  0EC8  2EB9               	goto	l1616
  2334  0EC9                     u1330:
  2335  0EC9                     l1618:
  2336  0EC9  0865               	movf	___fltol@sign1,w
  2337  0ECA  1903               	btfsc	3,2
  2338  0ECB  2ECD               	goto	u1341
  2339  0ECC  2ECE               	goto	u1340
  2340  0ECD                     u1341:
  2341  0ECD  2ED9               	goto	l496
  2342  0ECE                     u1340:
  2343  0ECE                     l1620:
  2344  0ECE  09DC               	comf	___fltol@f1,f
  2345  0ECF  09DD               	comf	___fltol@f1+1,f
  2346  0ED0  09DE               	comf	___fltol@f1+2,f
  2347  0ED1  09DF               	comf	___fltol@f1+3,f
  2348  0ED2  0ADC               	incf	___fltol@f1,f
  2349  0ED3  1903               	skipnz
  2350  0ED4  0ADD               	incf	___fltol@f1+1,f
  2351  0ED5  1903               	skipnz
  2352  0ED6  0ADE               	incf	___fltol@f1+2,f
  2353  0ED7  1903               	skipnz
  2354  0ED8  0ADF               	incf	___fltol@f1+3,f
  2355  0ED9                     l496:
  2356  0ED9                     l486:
  2357  0ED9  0008               	return
  2358  0EDA                     __end_of___fltol:
  2359                           
  2360                           	psect	text9
  2361  0039                     __ptext9:	
  2362 ;; *************** function ___flmul *****************
  2363 ;; Defined at:
  2364 ;;		line 8 in file "C:\Program Files\Microchip\xc8\v2.32\pic\sources\c90\common\sprcmul.c"
  2365 ;; Parameters:    Size  Location     Type
  2366 ;;  b               4   14[BANK0 ] long 
  2367 ;;  a               4   18[BANK0 ] long 
  2368 ;; Auto vars:     Size  Location     Type
  2369 ;;  prod            4   34[BANK0 ] struct .
  2370 ;;  grs             4   29[BANK0 ] unsigned long 
  2371 ;;  temp            2   38[BANK0 ] struct .
  2372 ;;  bexp            1   33[BANK0 ] unsigned char 
  2373 ;;  aexp            1   28[BANK0 ] unsigned char 
  2374 ;;  sign            1   27[BANK0 ] unsigned char 
  2375 ;; Return value:  Size  Location     Type
  2376 ;;                  4   14[BANK0 ] unsigned char 
  2377 ;; Registers used:
  2378 ;;		wreg, status,2, status,0, btemp+1, pclath, cstack
  2379 ;; Tracked objects:
  2380 ;;		On entry : 0/0
  2381 ;;		On exit  : 0/0
  2382 ;;		Unchanged: 0/0
  2383 ;; Data sizes:     COMMON   BANK0   BANK1   BANK3   BANK2
  2384 ;;      Params:         0       8       0       0       0
  2385 ;;      Locals:         0      13       0       0       0
  2386 ;;      Temps:          0       5       0       0       0
  2387 ;;      Totals:         0      26       0       0       0
  2388 ;;Total ram usage:       26 bytes
  2389 ;; Hardware stack levels used: 1
  2390 ;; Hardware stack levels required when called: 2
  2391 ;; This function calls:
  2392 ;;		__Umul8_16
  2393 ;; This function is called by:
  2394 ;;		_ctrservo
  2395 ;; This function uses a non-reentrant model
  2396 ;;
  2397                           
  2398                           
  2399                           ;psect for function ___flmul
  2400  0039                     ___flmul:
  2401  0039                     l2330:	
  2402                           ;incstack = 0
  2403                           ; Regs used in ___flmul: [wreg+status,2+status,0+btemp+1+pclath+cstack]
  2404                           
  2405  0039  1283               	bcf	3,5	;RP0=0, select bank0
  2406  003A  1303               	bcf	3,6	;RP1=0, select bank0
  2407  003B  0831               	movf	___flmul@b+3,w
  2408  003C  3980               	andlw	128
  2409  003D  00B6               	movwf	??___flmul
  2410  003E  0836               	movf	??___flmul,w
  2411  003F  00BB               	movwf	___flmul@sign
  2412  0040                     l2332:
  2413  0040  0831               	movf	___flmul@b+3,w
  2414  0041  00B6               	movwf	??___flmul
  2415  0042  0736               	addwf	??___flmul,w
  2416  0043  00B7               	movwf	??___flmul+1
  2417  0044  0837               	movf	??___flmul+1,w
  2418  0045  00C1               	movwf	___flmul@bexp
  2419  0046                     l2334:
  2420  0046  1FB0               	btfss	___flmul@b+2,7
  2421  0047  2849               	goto	u2451
  2422  0048  284A               	goto	u2450
  2423  0049                     u2451:
  2424  0049  284B               	goto	l2338
  2425  004A                     u2450:
  2426  004A                     l2336:
  2427  004A  1441               	bsf	___flmul@bexp,0
  2428  004B                     l2338:
  2429  004B  0841               	movf	___flmul@bexp,w
  2430  004C  1903               	btfsc	3,2
  2431  004D  284F               	goto	u2461
  2432  004E  2850               	goto	u2460
  2433  004F                     u2461:
  2434  004F  285F               	goto	l2346
  2435  0050                     u2460:
  2436  0050                     l2340:
  2437  0050  0A41               	incf	___flmul@bexp,w
  2438  0051  1D03               	btfss	3,2
  2439  0052  2854               	goto	u2471
  2440  0053  2855               	goto	u2470
  2441  0054                     u2471:
  2442  0054  285D               	goto	l2344
  2443  0055                     u2470:
  2444  0055                     l2342:
  2445  0055  3000               	movlw	0
  2446  0056  00B1               	movwf	___flmul@b+3
  2447  0057  3000               	movlw	0
  2448  0058  00B0               	movwf	___flmul@b+2
  2449  0059  3000               	movlw	0
  2450  005A  00AF               	movwf	___flmul@b+1
  2451  005B  3000               	movlw	0
  2452  005C  00AE               	movwf	___flmul@b
  2453  005D                     l2344:
  2454  005D  17B0               	bsf	___flmul@b+2,7
  2455  005E  2867               	goto	l2348
  2456  005F                     l2346:
  2457  005F  3000               	movlw	0
  2458  0060  00B1               	movwf	___flmul@b+3
  2459  0061  3000               	movlw	0
  2460  0062  00B0               	movwf	___flmul@b+2
  2461  0063  3000               	movlw	0
  2462  0064  00AF               	movwf	___flmul@b+1
  2463  0065  3000               	movlw	0
  2464  0066  00AE               	movwf	___flmul@b
  2465  0067                     l2348:
  2466  0067  0835               	movf	___flmul@a+3,w
  2467  0068  3980               	andlw	128
  2468  0069  00B6               	movwf	??___flmul
  2469  006A  0836               	movf	??___flmul,w
  2470  006B  06BB               	xorwf	___flmul@sign,f
  2471  006C                     l2350:
  2472  006C  0835               	movf	___flmul@a+3,w
  2473  006D  00B6               	movwf	??___flmul
  2474  006E  0736               	addwf	??___flmul,w
  2475  006F  00B7               	movwf	??___flmul+1
  2476  0070  0837               	movf	??___flmul+1,w
  2477  0071  00BC               	movwf	___flmul@aexp
  2478  0072                     l2352:
  2479  0072  1FB4               	btfss	___flmul@a+2,7
  2480  0073  2875               	goto	u2481
  2481  0074  2876               	goto	u2480
  2482  0075                     u2481:
  2483  0075  2877               	goto	l2356
  2484  0076                     u2480:
  2485  0076                     l2354:
  2486  0076  143C               	bsf	___flmul@aexp,0
  2487  0077                     l2356:
  2488  0077  083C               	movf	___flmul@aexp,w
  2489  0078  1903               	btfsc	3,2
  2490  0079  287B               	goto	u2491
  2491  007A  287C               	goto	u2490
  2492  007B                     u2491:
  2493  007B  288B               	goto	l2364
  2494  007C                     u2490:
  2495  007C                     l2358:
  2496  007C  0A3C               	incf	___flmul@aexp,w
  2497  007D  1D03               	btfss	3,2
  2498  007E  2880               	goto	u2501
  2499  007F  2881               	goto	u2500
  2500  0080                     u2501:
  2501  0080  2889               	goto	l2362
  2502  0081                     u2500:
  2503  0081                     l2360:
  2504  0081  3000               	movlw	0
  2505  0082  00B5               	movwf	___flmul@a+3
  2506  0083  3000               	movlw	0
  2507  0084  00B4               	movwf	___flmul@a+2
  2508  0085  3000               	movlw	0
  2509  0086  00B3               	movwf	___flmul@a+1
  2510  0087  3000               	movlw	0
  2511  0088  00B2               	movwf	___flmul@a
  2512  0089                     l2362:
  2513  0089  17B4               	bsf	___flmul@a+2,7
  2514  008A  2893               	goto	l2366
  2515  008B                     l2364:
  2516  008B  3000               	movlw	0
  2517  008C  00B5               	movwf	___flmul@a+3
  2518  008D  3000               	movlw	0
  2519  008E  00B4               	movwf	___flmul@a+2
  2520  008F  3000               	movlw	0
  2521  0090  00B3               	movwf	___flmul@a+1
  2522  0091  3000               	movlw	0
  2523  0092  00B2               	movwf	___flmul@a
  2524  0093                     l2366:
  2525  0093  083C               	movf	___flmul@aexp,w
  2526  0094  1903               	btfsc	3,2
  2527  0095  2897               	goto	u2511
  2528  0096  2898               	goto	u2510
  2529  0097                     u2511:
  2530  0097  289D               	goto	l2370
  2531  0098                     u2510:
  2532  0098                     l2368:
  2533  0098  0841               	movf	___flmul@bexp,w
  2534  0099  1D03               	btfss	3,2
  2535  009A  289C               	goto	u2521
  2536  009B  289D               	goto	u2520
  2537  009C                     u2521:
  2538  009C  28A6               	goto	l2374
  2539  009D                     u2520:
  2540  009D                     l2370:
  2541  009D  3000               	movlw	0
  2542  009E  00B1               	movwf	?___flmul+3
  2543  009F  3000               	movlw	0
  2544  00A0  00B0               	movwf	?___flmul+2
  2545  00A1  3000               	movlw	0
  2546  00A2  00AF               	movwf	?___flmul+1
  2547  00A3  3000               	movlw	0
  2548  00A4  00AE               	movwf	?___flmul
  2549  00A5  2B99               	goto	l689
  2550  00A6                     l2374:
  2551  00A6  082E               	movf	___flmul@b,w
  2552  00A7  00B6               	movwf	??___flmul
  2553  00A8  0836               	movf	??___flmul,w
  2554  00A9  00A0               	movwf	__Umul8_16@multiplicand
  2555  00AA  0834               	movf	___flmul@a+2,w
  2556  00AB  120A  158A  24ED  120A  118A  	fcall	__Umul8_16
  2557  00B0  1283               	bcf	3,5	;RP0=0, select bank0
  2558  00B1  1303               	bcf	3,6	;RP1=0, select bank0
  2559  00B2  0821               	movf	?__Umul8_16+1,w
  2560  00B3  00C7               	movwf	___flmul@temp+1
  2561  00B4  0820               	movf	?__Umul8_16,w
  2562  00B5  00C6               	movwf	___flmul@temp
  2563  00B6                     l2376:
  2564  00B6  0846               	movf	___flmul@temp,w
  2565  00B7  00B6               	movwf	??___flmul
  2566  00B8  01B7               	clrf	??___flmul+1
  2567  00B9  01B8               	clrf	??___flmul+2
  2568  00BA  01B9               	clrf	??___flmul+3
  2569  00BB  0839               	movf	??___flmul+3,w
  2570  00BC  00C0               	movwf	___flmul@grs+3
  2571  00BD  0838               	movf	??___flmul+2,w
  2572  00BE  00BF               	movwf	___flmul@grs+2
  2573  00BF  0837               	movf	??___flmul+1,w
  2574  00C0  00BE               	movwf	___flmul@grs+1
  2575  00C1  0836               	movf	??___flmul,w
  2576  00C2  00BD               	movwf	___flmul@grs
  2577  00C3                     l2378:
  2578  00C3  0847               	movf	___flmul@temp+1,w
  2579  00C4  00B6               	movwf	??___flmul
  2580  00C5  01B7               	clrf	??___flmul+1
  2581  00C6  01B8               	clrf	??___flmul+2
  2582  00C7  01B9               	clrf	??___flmul+3
  2583  00C8  0839               	movf	??___flmul+3,w
  2584  00C9  00C5               	movwf	___flmul@prod+3
  2585  00CA  0838               	movf	??___flmul+2,w
  2586  00CB  00C4               	movwf	___flmul@prod+2
  2587  00CC  0837               	movf	??___flmul+1,w
  2588  00CD  00C3               	movwf	___flmul@prod+1
  2589  00CE  0836               	movf	??___flmul,w
  2590  00CF  00C2               	movwf	___flmul@prod
  2591  00D0  082F               	movf	___flmul@b+1,w
  2592  00D1  00B6               	movwf	??___flmul
  2593  00D2  0836               	movf	??___flmul,w
  2594  00D3  00A0               	movwf	__Umul8_16@multiplicand
  2595  00D4  0833               	movf	___flmul@a+1,w
  2596  00D5  120A  158A  24ED  120A  118A  	fcall	__Umul8_16
  2597  00DA  1283               	bcf	3,5	;RP0=0, select bank0
  2598  00DB  1303               	bcf	3,6	;RP1=0, select bank0
  2599  00DC  0821               	movf	?__Umul8_16+1,w
  2600  00DD  00C7               	movwf	___flmul@temp+1
  2601  00DE  0820               	movf	?__Umul8_16,w
  2602  00DF  00C6               	movwf	___flmul@temp
  2603  00E0                     l2380:
  2604  00E0  0846               	movf	___flmul@temp,w
  2605  00E1  00B6               	movwf	??___flmul
  2606  00E2  01B7               	clrf	??___flmul+1
  2607  00E3  01B8               	clrf	??___flmul+2
  2608  00E4  01B9               	clrf	??___flmul+3
  2609  00E5  0836               	movf	??___flmul,w
  2610  00E6  07BD               	addwf	___flmul@grs,f
  2611  00E7  0837               	movf	??___flmul+1,w
  2612  00E8  1103               	clrz
  2613  00E9  1803               	skipnc
  2614  00EA  3E01               	addlw	1
  2615  00EB  1903               	skipnz
  2616  00EC  28EE               	goto	u2531
  2617  00ED  07BE               	addwf	___flmul@grs+1,f
  2618  00EE                     u2531:
  2619  00EE  0838               	movf	??___flmul+2,w
  2620  00EF  1103               	clrz
  2621  00F0  1803               	skipnc
  2622  00F1  3E01               	addlw	1
  2623  00F2  1903               	skipnz
  2624  00F3  28F5               	goto	u2532
  2625  00F4  07BF               	addwf	___flmul@grs+2,f
  2626  00F5                     u2532:
  2627  00F5  0839               	movf	??___flmul+3,w
  2628  00F6  1103               	clrz
  2629  00F7  1803               	skipnc
  2630  00F8  3E01               	addlw	1
  2631  00F9  1903               	skipnz
  2632  00FA  28FC               	goto	u2533
  2633  00FB  07C0               	addwf	___flmul@grs+3,f
  2634  00FC                     u2533:
  2635  00FC                     l2382:
  2636  00FC  0847               	movf	___flmul@temp+1,w
  2637  00FD  00B6               	movwf	??___flmul
  2638  00FE  01B7               	clrf	??___flmul+1
  2639  00FF  01B8               	clrf	??___flmul+2
  2640  0100  01B9               	clrf	??___flmul+3
  2641  0101  0836               	movf	??___flmul,w
  2642  0102  07C2               	addwf	___flmul@prod,f
  2643  0103  0837               	movf	??___flmul+1,w
  2644  0104  1103               	clrz
  2645  0105  1803               	skipnc
  2646  0106  3E01               	addlw	1
  2647  0107  1903               	skipnz
  2648  0108  290A               	goto	u2541
  2649  0109  07C3               	addwf	___flmul@prod+1,f
  2650  010A                     u2541:
  2651  010A  0838               	movf	??___flmul+2,w
  2652  010B  1103               	clrz
  2653  010C  1803               	skipnc
  2654  010D  3E01               	addlw	1
  2655  010E  1903               	skipnz
  2656  010F  2911               	goto	u2542
  2657  0110  07C4               	addwf	___flmul@prod+2,f
  2658  0111                     u2542:
  2659  0111  0839               	movf	??___flmul+3,w
  2660  0112  1103               	clrz
  2661  0113  1803               	skipnc
  2662  0114  3E01               	addlw	1
  2663  0115  1903               	skipnz
  2664  0116  2918               	goto	u2543
  2665  0117  07C5               	addwf	___flmul@prod+3,f
  2666  0118                     u2543:
  2667  0118  0830               	movf	___flmul@b+2,w
  2668  0119  00B6               	movwf	??___flmul
  2669  011A  0836               	movf	??___flmul,w
  2670  011B  00A0               	movwf	__Umul8_16@multiplicand
  2671  011C  0832               	movf	___flmul@a,w
  2672  011D  120A  158A  24ED  120A  118A  	fcall	__Umul8_16
  2673  0122  1283               	bcf	3,5	;RP0=0, select bank0
  2674  0123  1303               	bcf	3,6	;RP1=0, select bank0
  2675  0124  0821               	movf	?__Umul8_16+1,w
  2676  0125  00C7               	movwf	___flmul@temp+1
  2677  0126  0820               	movf	?__Umul8_16,w
  2678  0127  00C6               	movwf	___flmul@temp
  2679  0128                     l2384:
  2680  0128  0846               	movf	___flmul@temp,w
  2681  0129  00B6               	movwf	??___flmul
  2682  012A  01B7               	clrf	??___flmul+1
  2683  012B  01B8               	clrf	??___flmul+2
  2684  012C  01B9               	clrf	??___flmul+3
  2685  012D  0836               	movf	??___flmul,w
  2686  012E  07BD               	addwf	___flmul@grs,f
  2687  012F  0837               	movf	??___flmul+1,w
  2688  0130  1103               	clrz
  2689  0131  1803               	skipnc
  2690  0132  3E01               	addlw	1
  2691  0133  1903               	skipnz
  2692  0134  2936               	goto	u2551
  2693  0135  07BE               	addwf	___flmul@grs+1,f
  2694  0136                     u2551:
  2695  0136  0838               	movf	??___flmul+2,w
  2696  0137  1103               	clrz
  2697  0138  1803               	skipnc
  2698  0139  3E01               	addlw	1
  2699  013A  1903               	skipnz
  2700  013B  293D               	goto	u2552
  2701  013C  07BF               	addwf	___flmul@grs+2,f
  2702  013D                     u2552:
  2703  013D  0839               	movf	??___flmul+3,w
  2704  013E  1103               	clrz
  2705  013F  1803               	skipnc
  2706  0140  3E01               	addlw	1
  2707  0141  1903               	skipnz
  2708  0142  2944               	goto	u2553
  2709  0143  07C0               	addwf	___flmul@grs+3,f
  2710  0144                     u2553:
  2711  0144                     l2386:
  2712  0144  0847               	movf	___flmul@temp+1,w
  2713  0145  00B6               	movwf	??___flmul
  2714  0146  01B7               	clrf	??___flmul+1
  2715  0147  01B8               	clrf	??___flmul+2
  2716  0148  01B9               	clrf	??___flmul+3
  2717  0149  0836               	movf	??___flmul,w
  2718  014A  07C2               	addwf	___flmul@prod,f
  2719  014B  0837               	movf	??___flmul+1,w
  2720  014C  1103               	clrz
  2721  014D  1803               	skipnc
  2722  014E  3E01               	addlw	1
  2723  014F  1903               	skipnz
  2724  0150  2952               	goto	u2561
  2725  0151  07C3               	addwf	___flmul@prod+1,f
  2726  0152                     u2561:
  2727  0152  0838               	movf	??___flmul+2,w
  2728  0153  1103               	clrz
  2729  0154  1803               	skipnc
  2730  0155  3E01               	addlw	1
  2731  0156  1903               	skipnz
  2732  0157  2959               	goto	u2562
  2733  0158  07C4               	addwf	___flmul@prod+2,f
  2734  0159                     u2562:
  2735  0159  0839               	movf	??___flmul+3,w
  2736  015A  1103               	clrz
  2737  015B  1803               	skipnc
  2738  015C  3E01               	addlw	1
  2739  015D  1903               	skipnz
  2740  015E  2960               	goto	u2563
  2741  015F  07C5               	addwf	___flmul@prod+3,f
  2742  0160                     u2563:
  2743  0160                     l2388:
  2744  0160  3008               	movlw	8
  2745  0161  00B6               	movwf	??___flmul
  2746  0162                     u2575:
  2747  0162  1003               	clrc
  2748  0163  0DBD               	rlf	___flmul@grs,f
  2749  0164  0DBE               	rlf	___flmul@grs+1,f
  2750  0165  0DBF               	rlf	___flmul@grs+2,f
  2751  0166  0DC0               	rlf	___flmul@grs+3,f
  2752  0167  0BB6               	decfsz	??___flmul,f
  2753  0168  2962               	goto	u2575
  2754  0169                     l2390:
  2755  0169  082F               	movf	___flmul@b+1,w
  2756  016A  00B6               	movwf	??___flmul
  2757  016B  0836               	movf	??___flmul,w
  2758  016C  00A0               	movwf	__Umul8_16@multiplicand
  2759  016D  0832               	movf	___flmul@a,w
  2760  016E  120A  158A  24ED  120A  118A  	fcall	__Umul8_16
  2761  0173  1283               	bcf	3,5	;RP0=0, select bank0
  2762  0174  1303               	bcf	3,6	;RP1=0, select bank0
  2763  0175  0821               	movf	?__Umul8_16+1,w
  2764  0176  00C7               	movwf	___flmul@temp+1
  2765  0177  0820               	movf	?__Umul8_16,w
  2766  0178  00C6               	movwf	___flmul@temp
  2767  0179                     l2392:
  2768  0179  0846               	movf	___flmul@temp,w
  2769  017A  00B6               	movwf	??___flmul
  2770  017B  0847               	movf	___flmul@temp+1,w
  2771  017C  00B7               	movwf	??___flmul+1
  2772  017D  01B8               	clrf	??___flmul+2
  2773  017E  01B9               	clrf	??___flmul+3
  2774  017F  0836               	movf	??___flmul,w
  2775  0180  07BD               	addwf	___flmul@grs,f
  2776  0181  0837               	movf	??___flmul+1,w
  2777  0182  1103               	clrz
  2778  0183  1803               	skipnc
  2779  0184  3E01               	addlw	1
  2780  0185  1903               	skipnz
  2781  0186  2988               	goto	u2581
  2782  0187  07BE               	addwf	___flmul@grs+1,f
  2783  0188                     u2581:
  2784  0188  0838               	movf	??___flmul+2,w
  2785  0189  1103               	clrz
  2786  018A  1803               	skipnc
  2787  018B  3E01               	addlw	1
  2788  018C  1903               	skipnz
  2789  018D  298F               	goto	u2582
  2790  018E  07BF               	addwf	___flmul@grs+2,f
  2791  018F                     u2582:
  2792  018F  0839               	movf	??___flmul+3,w
  2793  0190  1103               	clrz
  2794  0191  1803               	skipnc
  2795  0192  3E01               	addlw	1
  2796  0193  1903               	skipnz
  2797  0194  2996               	goto	u2583
  2798  0195  07C0               	addwf	___flmul@grs+3,f
  2799  0196                     u2583:
  2800  0196                     l2394:
  2801  0196  082E               	movf	___flmul@b,w
  2802  0197  00B6               	movwf	??___flmul
  2803  0198  0836               	movf	??___flmul,w
  2804  0199  00A0               	movwf	__Umul8_16@multiplicand
  2805  019A  0833               	movf	___flmul@a+1,w
  2806  019B  120A  158A  24ED  120A  118A  	fcall	__Umul8_16
  2807  01A0  1283               	bcf	3,5	;RP0=0, select bank0
  2808  01A1  1303               	bcf	3,6	;RP1=0, select bank0
  2809  01A2  0821               	movf	?__Umul8_16+1,w
  2810  01A3  00C7               	movwf	___flmul@temp+1
  2811  01A4  0820               	movf	?__Umul8_16,w
  2812  01A5  00C6               	movwf	___flmul@temp
  2813  01A6                     l2396:
  2814  01A6  0846               	movf	___flmul@temp,w
  2815  01A7  00B6               	movwf	??___flmul
  2816  01A8  0847               	movf	___flmul@temp+1,w
  2817  01A9  00B7               	movwf	??___flmul+1
  2818  01AA  01B8               	clrf	??___flmul+2
  2819  01AB  01B9               	clrf	??___flmul+3
  2820  01AC  0836               	movf	??___flmul,w
  2821  01AD  07BD               	addwf	___flmul@grs,f
  2822  01AE  0837               	movf	??___flmul+1,w
  2823  01AF  1103               	clrz
  2824  01B0  1803               	skipnc
  2825  01B1  3E01               	addlw	1
  2826  01B2  1903               	skipnz
  2827  01B3  29B5               	goto	u2591
  2828  01B4  07BE               	addwf	___flmul@grs+1,f
  2829  01B5                     u2591:
  2830  01B5  0838               	movf	??___flmul+2,w
  2831  01B6  1103               	clrz
  2832  01B7  1803               	skipnc
  2833  01B8  3E01               	addlw	1
  2834  01B9  1903               	skipnz
  2835  01BA  29BC               	goto	u2592
  2836  01BB  07BF               	addwf	___flmul@grs+2,f
  2837  01BC                     u2592:
  2838  01BC  0839               	movf	??___flmul+3,w
  2839  01BD  1103               	clrz
  2840  01BE  1803               	skipnc
  2841  01BF  3E01               	addlw	1
  2842  01C0  1903               	skipnz
  2843  01C1  29C3               	goto	u2593
  2844  01C2  07C0               	addwf	___flmul@grs+3,f
  2845  01C3                     u2593:
  2846  01C3                     l2398:
  2847  01C3  3008               	movlw	8
  2848  01C4  00B6               	movwf	??___flmul
  2849  01C5                     u2605:
  2850  01C5  1003               	clrc
  2851  01C6  0DBD               	rlf	___flmul@grs,f
  2852  01C7  0DBE               	rlf	___flmul@grs+1,f
  2853  01C8  0DBF               	rlf	___flmul@grs+2,f
  2854  01C9  0DC0               	rlf	___flmul@grs+3,f
  2855  01CA  0BB6               	decfsz	??___flmul,f
  2856  01CB  29C5               	goto	u2605
  2857  01CC  082E               	movf	___flmul@b,w
  2858  01CD  00B6               	movwf	??___flmul
  2859  01CE  0836               	movf	??___flmul,w
  2860  01CF  00A0               	movwf	__Umul8_16@multiplicand
  2861  01D0  0832               	movf	___flmul@a,w
  2862  01D1  120A  158A  24ED  120A  118A  	fcall	__Umul8_16
  2863  01D6  1283               	bcf	3,5	;RP0=0, select bank0
  2864  01D7  1303               	bcf	3,6	;RP1=0, select bank0
  2865  01D8  0821               	movf	?__Umul8_16+1,w
  2866  01D9  00C7               	movwf	___flmul@temp+1
  2867  01DA  0820               	movf	?__Umul8_16,w
  2868  01DB  00C6               	movwf	___flmul@temp
  2869  01DC                     l2400:
  2870  01DC  0846               	movf	___flmul@temp,w
  2871  01DD  00B6               	movwf	??___flmul
  2872  01DE  0847               	movf	___flmul@temp+1,w
  2873  01DF  00B7               	movwf	??___flmul+1
  2874  01E0  01B8               	clrf	??___flmul+2
  2875  01E1  01B9               	clrf	??___flmul+3
  2876  01E2  0836               	movf	??___flmul,w
  2877  01E3  07BD               	addwf	___flmul@grs,f
  2878  01E4  0837               	movf	??___flmul+1,w
  2879  01E5  1103               	clrz
  2880  01E6  1803               	skipnc
  2881  01E7  3E01               	addlw	1
  2882  01E8  1903               	skipnz
  2883  01E9  29EB               	goto	u2611
  2884  01EA  07BE               	addwf	___flmul@grs+1,f
  2885  01EB                     u2611:
  2886  01EB  0838               	movf	??___flmul+2,w
  2887  01EC  1103               	clrz
  2888  01ED  1803               	skipnc
  2889  01EE  3E01               	addlw	1
  2890  01EF  1903               	skipnz
  2891  01F0  29F2               	goto	u2612
  2892  01F1  07BF               	addwf	___flmul@grs+2,f
  2893  01F2                     u2612:
  2894  01F2  0839               	movf	??___flmul+3,w
  2895  01F3  1103               	clrz
  2896  01F4  1803               	skipnc
  2897  01F5  3E01               	addlw	1
  2898  01F6  1903               	skipnz
  2899  01F7  29F9               	goto	u2613
  2900  01F8  07C0               	addwf	___flmul@grs+3,f
  2901  01F9                     u2613:
  2902  01F9                     l2402:
  2903  01F9  082F               	movf	___flmul@b+1,w
  2904  01FA  00B6               	movwf	??___flmul
  2905  01FB  0836               	movf	??___flmul,w
  2906  01FC  00A0               	movwf	__Umul8_16@multiplicand
  2907  01FD  0834               	movf	___flmul@a+2,w
  2908  01FE  120A  158A  24ED  120A  118A  	fcall	__Umul8_16
  2909  0203  1283               	bcf	3,5	;RP0=0, select bank0
  2910  0204  1303               	bcf	3,6	;RP1=0, select bank0
  2911  0205  0821               	movf	?__Umul8_16+1,w
  2912  0206  00C7               	movwf	___flmul@temp+1
  2913  0207  0820               	movf	?__Umul8_16,w
  2914  0208  00C6               	movwf	___flmul@temp
  2915  0209  0846               	movf	___flmul@temp,w
  2916  020A  00B6               	movwf	??___flmul
  2917  020B  0847               	movf	___flmul@temp+1,w
  2918  020C  00B7               	movwf	??___flmul+1
  2919  020D  01B8               	clrf	??___flmul+2
  2920  020E  01B9               	clrf	??___flmul+3
  2921  020F  0836               	movf	??___flmul,w
  2922  0210  07C2               	addwf	___flmul@prod,f
  2923  0211  0837               	movf	??___flmul+1,w
  2924  0212  1103               	clrz
  2925  0213  1803               	skipnc
  2926  0214  3E01               	addlw	1
  2927  0215  1903               	skipnz
  2928  0216  2A18               	goto	u2621
  2929  0217  07C3               	addwf	___flmul@prod+1,f
  2930  0218                     u2621:
  2931  0218  0838               	movf	??___flmul+2,w
  2932  0219  1103               	clrz
  2933  021A  1803               	skipnc
  2934  021B  3E01               	addlw	1
  2935  021C  1903               	skipnz
  2936  021D  2A1F               	goto	u2622
  2937  021E  07C4               	addwf	___flmul@prod+2,f
  2938  021F                     u2622:
  2939  021F  0839               	movf	??___flmul+3,w
  2940  0220  1103               	clrz
  2941  0221  1803               	skipnc
  2942  0222  3E01               	addlw	1
  2943  0223  1903               	skipnz
  2944  0224  2A26               	goto	u2623
  2945  0225  07C5               	addwf	___flmul@prod+3,f
  2946  0226                     u2623:
  2947  0226                     l2404:
  2948  0226  0830               	movf	___flmul@b+2,w
  2949  0227  00B6               	movwf	??___flmul
  2950  0228  0836               	movf	??___flmul,w
  2951  0229  00A0               	movwf	__Umul8_16@multiplicand
  2952  022A  0833               	movf	___flmul@a+1,w
  2953  022B  120A  158A  24ED  120A  118A  	fcall	__Umul8_16
  2954  0230  1283               	bcf	3,5	;RP0=0, select bank0
  2955  0231  1303               	bcf	3,6	;RP1=0, select bank0
  2956  0232  0821               	movf	?__Umul8_16+1,w
  2957  0233  00C7               	movwf	___flmul@temp+1
  2958  0234  0820               	movf	?__Umul8_16,w
  2959  0235  00C6               	movwf	___flmul@temp
  2960  0236                     l2406:
  2961  0236  0846               	movf	___flmul@temp,w
  2962  0237  00B6               	movwf	??___flmul
  2963  0238  0847               	movf	___flmul@temp+1,w
  2964  0239  00B7               	movwf	??___flmul+1
  2965  023A  01B8               	clrf	??___flmul+2
  2966  023B  01B9               	clrf	??___flmul+3
  2967  023C  0836               	movf	??___flmul,w
  2968  023D  07C2               	addwf	___flmul@prod,f
  2969  023E  0837               	movf	??___flmul+1,w
  2970  023F  1103               	clrz
  2971  0240  1803               	skipnc
  2972  0241  3E01               	addlw	1
  2973  0242  1903               	skipnz
  2974  0243  2A45               	goto	u2631
  2975  0244  07C3               	addwf	___flmul@prod+1,f
  2976  0245                     u2631:
  2977  0245  0838               	movf	??___flmul+2,w
  2978  0246  1103               	clrz
  2979  0247  1803               	skipnc
  2980  0248  3E01               	addlw	1
  2981  0249  1903               	skipnz
  2982  024A  2A4C               	goto	u2632
  2983  024B  07C4               	addwf	___flmul@prod+2,f
  2984  024C                     u2632:
  2985  024C  0839               	movf	??___flmul+3,w
  2986  024D  1103               	clrz
  2987  024E  1803               	skipnc
  2988  024F  3E01               	addlw	1
  2989  0250  1903               	skipnz
  2990  0251  2A53               	goto	u2633
  2991  0252  07C5               	addwf	___flmul@prod+3,f
  2992  0253                     u2633:
  2993  0253  0830               	movf	___flmul@b+2,w
  2994  0254  00B6               	movwf	??___flmul
  2995  0255  0836               	movf	??___flmul,w
  2996  0256  00A0               	movwf	__Umul8_16@multiplicand
  2997  0257  0834               	movf	___flmul@a+2,w
  2998  0258  120A  158A  24ED  120A  118A  	fcall	__Umul8_16
  2999  025D  1283               	bcf	3,5	;RP0=0, select bank0
  3000  025E  1303               	bcf	3,6	;RP1=0, select bank0
  3001  025F  0821               	movf	?__Umul8_16+1,w
  3002  0260  00C7               	movwf	___flmul@temp+1
  3003  0261  0820               	movf	?__Umul8_16,w
  3004  0262  00C6               	movwf	___flmul@temp
  3005  0263                     l2408:
  3006  0263  0846               	movf	___flmul@temp,w
  3007  0264  00B6               	movwf	??___flmul
  3008  0265  0847               	movf	___flmul@temp+1,w
  3009  0266  00B7               	movwf	??___flmul+1
  3010  0267  01B8               	clrf	??___flmul+2
  3011  0268  01B9               	clrf	??___flmul+3
  3012  0269  3008               	movlw	8
  3013  026A                     u2645:
  3014  026A  1003               	clrc
  3015  026B  0DB6               	rlf	??___flmul,f
  3016  026C  0DB7               	rlf	??___flmul+1,f
  3017  026D  0DB8               	rlf	??___flmul+2,f
  3018  026E  0DB9               	rlf	??___flmul+3,f
  3019  026F                     u2640:
  3020  026F  3EFF               	addlw	-1
  3021  0270  1D03               	skipz
  3022  0271  2A6A               	goto	u2645
  3023  0272  0836               	movf	??___flmul,w
  3024  0273  07C2               	addwf	___flmul@prod,f
  3025  0274  0837               	movf	??___flmul+1,w
  3026  0275  1103               	clrz
  3027  0276  1803               	skipnc
  3028  0277  3E01               	addlw	1
  3029  0278  1903               	skipnz
  3030  0279  2A7B               	goto	u2651
  3031  027A  07C3               	addwf	___flmul@prod+1,f
  3032  027B                     u2651:
  3033  027B  0838               	movf	??___flmul+2,w
  3034  027C  1103               	clrz
  3035  027D  1803               	skipnc
  3036  027E  3E01               	addlw	1
  3037  027F  1903               	skipnz
  3038  0280  2A82               	goto	u2652
  3039  0281  07C4               	addwf	___flmul@prod+2,f
  3040  0282                     u2652:
  3041  0282  0839               	movf	??___flmul+3,w
  3042  0283  1103               	clrz
  3043  0284  1803               	skipnc
  3044  0285  3E01               	addlw	1
  3045  0286  1903               	skipnz
  3046  0287  2A89               	goto	u2653
  3047  0288  07C5               	addwf	___flmul@prod+3,f
  3048  0289                     u2653:
  3049  0289                     l2410:
  3050  0289  083D               	movf	___flmul@grs,w
  3051  028A  00B6               	movwf	??___flmul
  3052  028B  083E               	movf	___flmul@grs+1,w
  3053  028C  00B7               	movwf	??___flmul+1
  3054  028D  083F               	movf	___flmul@grs+2,w
  3055  028E  00B8               	movwf	??___flmul+2
  3056  028F  0840               	movf	___flmul@grs+3,w
  3057  0290  00B9               	movwf	??___flmul+3
  3058  0291  3018               	movlw	24
  3059  0292                     u2665:
  3060  0292  1003               	clrc
  3061  0293  0CB9               	rrf	??___flmul+3,f
  3062  0294  0CB8               	rrf	??___flmul+2,f
  3063  0295  0CB7               	rrf	??___flmul+1,f
  3064  0296  0CB6               	rrf	??___flmul,f
  3065  0297                     u2660:
  3066  0297  3EFF               	addlw	-1
  3067  0298  1D03               	skipz
  3068  0299  2A92               	goto	u2665
  3069  029A  0836               	movf	??___flmul,w
  3070  029B  07C2               	addwf	___flmul@prod,f
  3071  029C  0837               	movf	??___flmul+1,w
  3072  029D  1103               	clrz
  3073  029E  1803               	skipnc
  3074  029F  3E01               	addlw	1
  3075  02A0  1903               	skipnz
  3076  02A1  2AA3               	goto	u2671
  3077  02A2  07C3               	addwf	___flmul@prod+1,f
  3078  02A3                     u2671:
  3079  02A3  0838               	movf	??___flmul+2,w
  3080  02A4  1103               	clrz
  3081  02A5  1803               	skipnc
  3082  02A6  3E01               	addlw	1
  3083  02A7  1903               	skipnz
  3084  02A8  2AAA               	goto	u2672
  3085  02A9  07C4               	addwf	___flmul@prod+2,f
  3086  02AA                     u2672:
  3087  02AA  0839               	movf	??___flmul+3,w
  3088  02AB  1103               	clrz
  3089  02AC  1803               	skipnc
  3090  02AD  3E01               	addlw	1
  3091  02AE  1903               	skipnz
  3092  02AF  2AB1               	goto	u2673
  3093  02B0  07C5               	addwf	___flmul@prod+3,f
  3094  02B1                     u2673:
  3095  02B1                     l2412:
  3096  02B1  3008               	movlw	8
  3097  02B2  00B6               	movwf	??___flmul
  3098  02B3                     u2685:
  3099  02B3  1003               	clrc
  3100  02B4  0DBD               	rlf	___flmul@grs,f
  3101  02B5  0DBE               	rlf	___flmul@grs+1,f
  3102  02B6  0DBF               	rlf	___flmul@grs+2,f
  3103  02B7  0DC0               	rlf	___flmul@grs+3,f
  3104  02B8  0BB6               	decfsz	??___flmul,f
  3105  02B9  2AB3               	goto	u2685
  3106  02BA                     l2414:
  3107  02BA  0841               	movf	___flmul@bexp,w
  3108  02BB  073C               	addwf	___flmul@aexp,w
  3109  02BC  00B6               	movwf	??___flmul
  3110  02BD  01B7               	clrf	??___flmul+1
  3111  02BE  0DB7               	rlf	??___flmul+1,f
  3112  02BF  0836               	movf	??___flmul,w
  3113  02C0  3E82               	addlw	130
  3114  02C1  00C6               	movwf	___flmul@temp
  3115  02C2  0837               	movf	??___flmul+1,w
  3116  02C3  1803               	skipnc
  3117  02C4  3E01               	addlw	1
  3118  02C5  3EFF               	addlw	255
  3119  02C6  00C7               	movwf	___flmul@temp+1
  3120  02C7  2AE5               	goto	l2426
  3121  02C8                     l2416:
  3122  02C8  3001               	movlw	1
  3123  02C9  00B6               	movwf	??___flmul
  3124  02CA                     u2695:
  3125  02CA  1003               	clrc
  3126  02CB  0DC2               	rlf	___flmul@prod,f
  3127  02CC  0DC3               	rlf	___flmul@prod+1,f
  3128  02CD  0DC4               	rlf	___flmul@prod+2,f
  3129  02CE  0DC5               	rlf	___flmul@prod+3,f
  3130  02CF  0BB6               	decfsz	??___flmul,f
  3131  02D0  2ACA               	goto	u2695
  3132  02D1                     l2418:
  3133  02D1  1FC0               	btfss	___flmul@grs+3,7
  3134  02D2  2AD4               	goto	u2701
  3135  02D3  2AD5               	goto	u2700
  3136  02D4                     u2701:
  3137  02D4  2AD6               	goto	l2422
  3138  02D5                     u2700:
  3139  02D5                     l2420:
  3140  02D5  1442               	bsf	___flmul@prod,0
  3141  02D6                     l2422:
  3142  02D6  3001               	movlw	1
  3143  02D7  00B6               	movwf	??___flmul
  3144  02D8                     u2715:
  3145  02D8  1003               	clrc
  3146  02D9  0DBD               	rlf	___flmul@grs,f
  3147  02DA  0DBE               	rlf	___flmul@grs+1,f
  3148  02DB  0DBF               	rlf	___flmul@grs+2,f
  3149  02DC  0DC0               	rlf	___flmul@grs+3,f
  3150  02DD  0BB6               	decfsz	??___flmul,f
  3151  02DE  2AD8               	goto	u2715
  3152  02DF                     l2424:
  3153  02DF  30FF               	movlw	255
  3154  02E0  07C6               	addwf	___flmul@temp,f
  3155  02E1  1803               	skipnc
  3156  02E2  0AC7               	incf	___flmul@temp+1,f
  3157  02E3  30FF               	movlw	255
  3158  02E4  07C7               	addwf	___flmul@temp+1,f
  3159  02E5                     l2426:
  3160  02E5  1FC4               	btfss	___flmul@prod+2,7
  3161  02E6  2AE8               	goto	u2721
  3162  02E7  2AE9               	goto	u2720
  3163  02E8                     u2721:
  3164  02E8  2AC8               	goto	l2416
  3165  02E9                     u2720:
  3166  02E9                     l2428:
  3167  02E9  01BC               	clrf	___flmul@aexp
  3168  02EA                     l2430:
  3169  02EA  1FC0               	btfss	___flmul@grs+3,7
  3170  02EB  2AED               	goto	u2731
  3171  02EC  2AEE               	goto	u2730
  3172  02ED                     u2731:
  3173  02ED  2B0A               	goto	l2438
  3174  02EE                     u2730:
  3175  02EE                     l2432:
  3176  02EE  30FF               	movlw	255
  3177  02EF  053D               	andwf	___flmul@grs,w
  3178  02F0  00B6               	movwf	??___flmul
  3179  02F1  30FF               	movlw	255
  3180  02F2  053E               	andwf	___flmul@grs+1,w
  3181  02F3  00B7               	movwf	??___flmul+1
  3182  02F4  30FF               	movlw	255
  3183  02F5  053F               	andwf	___flmul@grs+2,w
  3184  02F6  00B8               	movwf	??___flmul+2
  3185  02F7  307F               	movlw	127
  3186  02F8  0540               	andwf	___flmul@grs+3,w
  3187  02F9  00B9               	movwf	??___flmul+3
  3188  02FA  0839               	movf	??___flmul+3,w
  3189  02FB  0438               	iorwf	??___flmul+2,w
  3190  02FC  0437               	iorwf	??___flmul+1,w
  3191  02FD  0436               	iorwf	??___flmul,w
  3192  02FE  1903               	skipnz
  3193  02FF  2B01               	goto	u2741
  3194  0300  2B02               	goto	u2740
  3195  0301                     u2741:
  3196  0301  2B05               	goto	l695
  3197  0302                     u2740:
  3198  0302                     l2434:
  3199  0302  01BC               	clrf	___flmul@aexp
  3200  0303  0ABC               	incf	___flmul@aexp,f
  3201  0304  2B0A               	goto	l2438
  3202  0305                     l695:
  3203  0305  1C42               	btfss	___flmul@prod,0
  3204  0306  2B08               	goto	u2751
  3205  0307  2B09               	goto	u2750
  3206  0308                     u2751:
  3207  0308  2B0A               	goto	l2438
  3208  0309                     u2750:
  3209  0309  2B02               	goto	l2434
  3210  030A                     l2438:
  3211  030A  083C               	movf	___flmul@aexp,w
  3212  030B  1903               	btfsc	3,2
  3213  030C  2B0E               	goto	u2761
  3214  030D  2B0F               	goto	u2760
  3215  030E                     u2761:
  3216  030E  2B40               	goto	l2448
  3217  030F                     u2760:
  3218  030F                     l2440:
  3219  030F  3001               	movlw	1
  3220  0310  07C2               	addwf	___flmul@prod,f
  3221  0311  3000               	movlw	0
  3222  0312  1803               	skipnc
  3223  0313  3001               	movlw	1
  3224  0314  07C3               	addwf	___flmul@prod+1,f
  3225  0315  3000               	movlw	0
  3226  0316  1803               	skipnc
  3227  0317  3001               	movlw	1
  3228  0318  07C4               	addwf	___flmul@prod+2,f
  3229  0319  3000               	movlw	0
  3230  031A  1803               	skipnc
  3231  031B  3001               	movlw	1
  3232  031C  07C5               	addwf	___flmul@prod+3,f
  3233  031D                     l2442:
  3234  031D  1C45               	btfss	___flmul@prod+3,0
  3235  031E  2B20               	goto	u2771
  3236  031F  2B21               	goto	u2770
  3237  0320                     u2771:
  3238  0320  2B40               	goto	l2448
  3239  0321                     u2770:
  3240  0321                     l2444:
  3241  0321  0842               	movf	___flmul@prod,w
  3242  0322  00B6               	movwf	??___flmul
  3243  0323  0843               	movf	___flmul@prod+1,w
  3244  0324  00B7               	movwf	??___flmul+1
  3245  0325  0844               	movf	___flmul@prod+2,w
  3246  0326  00B8               	movwf	??___flmul+2
  3247  0327  0845               	movf	___flmul@prod+3,w
  3248  0328  00B9               	movwf	??___flmul+3
  3249  0329  3001               	movlw	1
  3250  032A  00BA               	movwf	??___flmul+4
  3251  032B                     u2785:
  3252  032B  0D39               	rlf	??___flmul+3,w
  3253  032C  0CB9               	rrf	??___flmul+3,f
  3254  032D  0CB8               	rrf	??___flmul+2,f
  3255  032E  0CB7               	rrf	??___flmul+1,f
  3256  032F  0CB6               	rrf	??___flmul,f
  3257  0330                     u2780:
  3258  0330  0BBA               	decfsz	??___flmul+4,f
  3259  0331  2B2B               	goto	u2785
  3260  0332  0839               	movf	??___flmul+3,w
  3261  0333  00C5               	movwf	___flmul@prod+3
  3262  0334  0838               	movf	??___flmul+2,w
  3263  0335  00C4               	movwf	___flmul@prod+2
  3264  0336  0837               	movf	??___flmul+1,w
  3265  0337  00C3               	movwf	___flmul@prod+1
  3266  0338  0836               	movf	??___flmul,w
  3267  0339  00C2               	movwf	___flmul@prod
  3268  033A                     l2446:
  3269  033A  3001               	movlw	1
  3270  033B  07C6               	addwf	___flmul@temp,f
  3271  033C  1803               	skipnc
  3272  033D  0AC7               	incf	___flmul@temp+1,f
  3273  033E  3000               	movlw	0
  3274  033F  07C7               	addwf	___flmul@temp+1,f
  3275  0340                     l2448:
  3276  0340  0847               	movf	___flmul@temp+1,w
  3277  0341  3A80               	xorlw	128
  3278  0342  00FF               	movwf	btemp+1
  3279  0343  3080               	movlw	128
  3280  0344  027F               	subwf	btemp+1,w
  3281  0345  1D03               	skipz
  3282  0346  2B49               	goto	u2795
  3283  0347  30FF               	movlw	255
  3284  0348  0246               	subwf	___flmul@temp,w
  3285  0349                     u2795:
  3286  0349  1C03               	skipc
  3287  034A  2B4C               	goto	u2791
  3288  034B  2B4D               	goto	u2790
  3289  034C                     u2791:
  3290  034C  2B58               	goto	l2452
  3291  034D                     u2790:
  3292  034D                     l2450:
  3293  034D  307F               	movlw	127
  3294  034E  1283               	bcf	3,5	;RP0=0, select bank0
  3295  034F  1303               	bcf	3,6	;RP1=0, select bank0
  3296  0350  00C5               	movwf	___flmul@prod+3
  3297  0351  3080               	movlw	128
  3298  0352  00C4               	movwf	___flmul@prod+2
  3299  0353  3000               	movlw	0
  3300  0354  00C3               	movwf	___flmul@prod+1
  3301  0355  3000               	movlw	0
  3302  0356  00C2               	movwf	___flmul@prod
  3303  0357  2B8D               	goto	l701
  3304  0358                     l2452:
  3305  0358  1283               	bcf	3,5	;RP0=0, select bank0
  3306  0359  1303               	bcf	3,6	;RP1=0, select bank0
  3307  035A  0847               	movf	___flmul@temp+1,w
  3308  035B  3A80               	xorlw	128
  3309  035C  00FF               	movwf	btemp+1
  3310  035D  3080               	movlw	128
  3311  035E  027F               	subwf	btemp+1,w
  3312  035F  1D03               	skipz
  3313  0360  2B63               	goto	u2805
  3314  0361  3001               	movlw	1
  3315  0362  0246               	subwf	___flmul@temp,w
  3316  0363                     u2805:
  3317  0363  1803               	skipnc
  3318  0364  2B66               	goto	u2801
  3319  0365  2B67               	goto	u2800
  3320  0366                     u2801:
  3321  0366  2B73               	goto	l2458
  3322  0367                     u2800:
  3323  0367                     l2454:
  3324  0367  3000               	movlw	0
  3325  0368  1283               	bcf	3,5	;RP0=0, select bank0
  3326  0369  1303               	bcf	3,6	;RP1=0, select bank0
  3327  036A  00C5               	movwf	___flmul@prod+3
  3328  036B  3000               	movlw	0
  3329  036C  00C4               	movwf	___flmul@prod+2
  3330  036D  3000               	movlw	0
  3331  036E  00C3               	movwf	___flmul@prod+1
  3332  036F  3000               	movlw	0
  3333  0370  00C2               	movwf	___flmul@prod
  3334  0371                     l2456:
  3335  0371  01BB               	clrf	___flmul@sign
  3336  0372  2B8D               	goto	l701
  3337  0373                     l2458:
  3338  0373  1283               	bcf	3,5	;RP0=0, select bank0
  3339  0374  1303               	bcf	3,6	;RP1=0, select bank0
  3340  0375  0846               	movf	___flmul@temp,w
  3341  0376  00B6               	movwf	??___flmul
  3342  0377  0836               	movf	??___flmul,w
  3343  0378  00C1               	movwf	___flmul@bexp
  3344  0379  30FF               	movlw	255
  3345  037A  05C2               	andwf	___flmul@prod,f
  3346  037B  30FF               	movlw	255
  3347  037C  05C3               	andwf	___flmul@prod+1,f
  3348  037D  307F               	movlw	127
  3349  037E  05C4               	andwf	___flmul@prod+2,f
  3350  037F  3000               	movlw	0
  3351  0380  05C5               	andwf	___flmul@prod+3,f
  3352  0381                     l2460:
  3353  0381  1C41               	btfss	___flmul@bexp,0
  3354  0382  2B84               	goto	u2811
  3355  0383  2B85               	goto	u2810
  3356  0384                     u2811:
  3357  0384  2B86               	goto	l2464
  3358  0385                     u2810:
  3359  0385                     l2462:
  3360  0385  17C4               	bsf	___flmul@prod+2,7
  3361  0386                     l2464:
  3362  0386  0841               	movf	___flmul@bexp,w
  3363  0387  00B6               	movwf	??___flmul
  3364  0388  1003               	clrc
  3365  0389  0C36               	rrf	??___flmul,w
  3366  038A  00B7               	movwf	??___flmul+1
  3367  038B  0837               	movf	??___flmul+1,w
  3368  038C  00C5               	movwf	___flmul@prod+3
  3369  038D                     l701:
  3370  038D  083B               	movf	___flmul@sign,w
  3371  038E  00B6               	movwf	??___flmul
  3372  038F  0836               	movf	??___flmul,w
  3373  0390  04C5               	iorwf	___flmul@prod+3,f
  3374  0391                     l2466:
  3375  0391  0845               	movf	___flmul@prod+3,w
  3376  0392  00B1               	movwf	?___flmul+3
  3377  0393  0844               	movf	___flmul@prod+2,w
  3378  0394  00B0               	movwf	?___flmul+2
  3379  0395  0843               	movf	___flmul@prod+1,w
  3380  0396  00AF               	movwf	?___flmul+1
  3381  0397  0842               	movf	___flmul@prod,w
  3382  0398  00AE               	movwf	?___flmul
  3383  0399                     l689:
  3384  0399  0008               	return
  3385  039A                     __end_of___flmul:
  3386                           
  3387                           	psect	text10
  3388  0CED                     __ptext10:	
  3389 ;; *************** function __Umul8_16 *****************
  3390 ;; Defined at:
  3391 ;;		line 4 in file "C:\Program Files\Microchip\xc8\v2.32\pic\sources\c90\common\Umul8_16.c"
  3392 ;; Parameters:    Size  Location     Type
  3393 ;;  multiplier      1    wreg     unsigned char 
  3394 ;;  multiplicand    1    0[BANK0 ] unsigned char 
  3395 ;; Auto vars:     Size  Location     Type
  3396 ;;  multiplier      1    8[BANK0 ] unsigned char 
  3397 ;;  word_mpld       2    6[BANK0 ] unsigned int 
  3398 ;;  product         2    4[BANK0 ] unsigned int 
  3399 ;; Return value:  Size  Location     Type
  3400 ;;                  2    0[BANK0 ] unsigned int 
  3401 ;; Registers used:
  3402 ;;		wreg, status,2, status,0
  3403 ;; Tracked objects:
  3404 ;;		On entry : 0/0
  3405 ;;		On exit  : 0/0
  3406 ;;		Unchanged: 0/0
  3407 ;; Data sizes:     COMMON   BANK0   BANK1   BANK3   BANK2
  3408 ;;      Params:         0       2       0       0       0
  3409 ;;      Locals:         0       5       0       0       0
  3410 ;;      Temps:          0       2       0       0       0
  3411 ;;      Totals:         0       9       0       0       0
  3412 ;;Total ram usage:        9 bytes
  3413 ;; Hardware stack levels used: 1
  3414 ;; Hardware stack levels required when called: 1
  3415 ;; This function calls:
  3416 ;;		Nothing
  3417 ;; This function is called by:
  3418 ;;		___flmul
  3419 ;; This function uses a non-reentrant model
  3420 ;;
  3421                           
  3422                           
  3423                           ;psect for function __Umul8_16
  3424  0CED                     __Umul8_16:
  3425                           
  3426                           ;incstack = 0
  3427                           ; Regs used in __Umul8_16: [wreg+status,2+status,0]
  3428                           ;__Umul8_16@multiplier stored from wreg
  3429  0CED  1283               	bcf	3,5	;RP0=0, select bank0
  3430  0CEE  1303               	bcf	3,6	;RP1=0, select bank0
  3431  0CEF  00A8               	movwf	__Umul8_16@multiplier
  3432  0CF0                     l2294:
  3433  0CF0  01A4               	clrf	__Umul8_16@product
  3434  0CF1  01A5               	clrf	__Umul8_16@product+1
  3435  0CF2                     l2296:
  3436  0CF2  0820               	movf	__Umul8_16@multiplicand,w
  3437  0CF3  00A2               	movwf	??__Umul8_16
  3438  0CF4  01A3               	clrf	??__Umul8_16+1
  3439  0CF5  0822               	movf	??__Umul8_16,w
  3440  0CF6  00A6               	movwf	__Umul8_16@word_mpld
  3441  0CF7  0823               	movf	??__Umul8_16+1,w
  3442  0CF8  00A7               	movwf	__Umul8_16@word_mpld+1
  3443  0CF9                     l2298:
  3444  0CF9  1C28               	btfss	__Umul8_16@multiplier,0
  3445  0CFA  2CFC               	goto	u2411
  3446  0CFB  2CFD               	goto	u2410
  3447  0CFC                     u2411:
  3448  0CFC  2D03               	goto	l708
  3449  0CFD                     u2410:
  3450  0CFD                     l2300:
  3451  0CFD  0826               	movf	__Umul8_16@word_mpld,w
  3452  0CFE  07A4               	addwf	__Umul8_16@product,f
  3453  0CFF  1803               	skipnc
  3454  0D00  0AA5               	incf	__Umul8_16@product+1,f
  3455  0D01  0827               	movf	__Umul8_16@word_mpld+1,w
  3456  0D02  07A5               	addwf	__Umul8_16@product+1,f
  3457  0D03                     l708:
  3458  0D03  3001               	movlw	1
  3459  0D04                     u2425:
  3460  0D04  1003               	clrc
  3461  0D05  0DA6               	rlf	__Umul8_16@word_mpld,f
  3462  0D06  0DA7               	rlf	__Umul8_16@word_mpld+1,f
  3463  0D07  3EFF               	addlw	-1
  3464  0D08  1D03               	skipz
  3465  0D09  2D04               	goto	u2425
  3466  0D0A  1003               	clrc
  3467  0D0B  0CA8               	rrf	__Umul8_16@multiplier,f
  3468  0D0C                     l2302:
  3469  0D0C  0828               	movf	__Umul8_16@multiplier,w
  3470  0D0D  1D03               	btfss	3,2
  3471  0D0E  2D10               	goto	u2431
  3472  0D0F  2D11               	goto	u2430
  3473  0D10                     u2431:
  3474  0D10  2CF9               	goto	l2298
  3475  0D11                     u2430:
  3476  0D11                     l2304:
  3477  0D11  0825               	movf	__Umul8_16@product+1,w
  3478  0D12  00A1               	movwf	?__Umul8_16+1
  3479  0D13  0824               	movf	__Umul8_16@product,w
  3480  0D14  00A0               	movwf	?__Umul8_16
  3481  0D15                     l710:
  3482  0D15  0008               	return
  3483  0D16                     __end_of__Umul8_16:
  3484                           
  3485                           	psect	text11
  3486  039A                     __ptext11:	
  3487 ;; *************** function ___fladd *****************
  3488 ;; Defined at:
  3489 ;;		line 10 in file "C:\Program Files\Microchip\xc8\v2.32\pic\sources\c90\common\sprcadd.c"
  3490 ;; Parameters:    Size  Location     Type
  3491 ;;  b               4   40[BANK0 ] unsigned int 
  3492 ;;  a               4   44[BANK0 ] unsigned int 
  3493 ;; Auto vars:     Size  Location     Type
  3494 ;;  grs             1   59[BANK0 ] unsigned char 
  3495 ;;  bexp            1   58[BANK0 ] unsigned char 
  3496 ;;  aexp            1   57[BANK0 ] unsigned char 
  3497 ;;  signs           1   56[BANK0 ] unsigned char 
  3498 ;; Return value:  Size  Location     Type
  3499 ;;                  4   40[BANK0 ] unsigned char 
  3500 ;; Registers used:
  3501 ;;		wreg, status,2, status,0, btemp+1
  3502 ;; Tracked objects:
  3503 ;;		On entry : 0/0
  3504 ;;		On exit  : 0/0
  3505 ;;		Unchanged: 0/0
  3506 ;; Data sizes:     COMMON   BANK0   BANK1   BANK3   BANK2
  3507 ;;      Params:         0       8       0       0       0
  3508 ;;      Locals:         0       4       0       0       0
  3509 ;;      Temps:          0       8       0       0       0
  3510 ;;      Totals:         0      20       0       0       0
  3511 ;;Total ram usage:       20 bytes
  3512 ;; Hardware stack levels used: 1
  3513 ;; Hardware stack levels required when called: 1
  3514 ;; This function calls:
  3515 ;;		Nothing
  3516 ;; This function is called by:
  3517 ;;		_ctrservo
  3518 ;; This function uses a non-reentrant model
  3519 ;;
  3520                           
  3521                           
  3522                           ;psect for function ___fladd
  3523  039A                     ___fladd:
  3524  039A                     l1622:	
  3525                           ;incstack = 0
  3526                           ; Regs used in ___fladd: [wreg+status,2+status,0+btemp+1]
  3527                           
  3528  039A  1283               	bcf	3,5	;RP0=0, select bank0
  3529  039B  1303               	bcf	3,6	;RP1=0, select bank0
  3530  039C  084B               	movf	___fladd@b+3,w
  3531  039D  3980               	andlw	128
  3532  039E  00D0               	movwf	??___fladd
  3533  039F  0850               	movf	??___fladd,w
  3534  03A0  00D8               	movwf	___fladd@signs
  3535  03A1                     l1624:
  3536  03A1  084B               	movf	___fladd@b+3,w
  3537  03A2  00D0               	movwf	??___fladd
  3538  03A3  0750               	addwf	??___fladd,w
  3539  03A4  00D1               	movwf	??___fladd+1
  3540  03A5  0851               	movf	??___fladd+1,w
  3541  03A6  00DA               	movwf	___fladd@bexp
  3542  03A7                     l1626:
  3543  03A7  1FCA               	btfss	___fladd@b+2,7
  3544  03A8  2BAA               	goto	u1351
  3545  03A9  2BAB               	goto	u1350
  3546  03AA                     u1351:
  3547  03AA  2BAC               	goto	l1630
  3548  03AB                     u1350:
  3549  03AB                     l1628:
  3550  03AB  145A               	bsf	___fladd@bexp,0
  3551  03AC                     l1630:
  3552  03AC  085A               	movf	___fladd@bexp,w
  3553  03AD  1903               	btfsc	3,2
  3554  03AE  2BB0               	goto	u1361
  3555  03AF  2BB1               	goto	u1360
  3556  03B0                     u1361:
  3557  03B0  2BC1               	goto	l1640
  3558  03B1                     u1360:
  3559  03B1                     l1632:
  3560  03B1  0A5A               	incf	___fladd@bexp,w
  3561  03B2  1D03               	btfss	3,2
  3562  03B3  2BB5               	goto	u1371
  3563  03B4  2BB6               	goto	u1370
  3564  03B5                     u1371:
  3565  03B5  2BBE               	goto	l1636
  3566  03B6                     u1370:
  3567  03B6                     l1634:
  3568  03B6  3000               	movlw	0
  3569  03B7  00CB               	movwf	___fladd@b+3
  3570  03B8  3000               	movlw	0
  3571  03B9  00CA               	movwf	___fladd@b+2
  3572  03BA  3000               	movlw	0
  3573  03BB  00C9               	movwf	___fladd@b+1
  3574  03BC  3000               	movlw	0
  3575  03BD  00C8               	movwf	___fladd@b
  3576  03BE                     l1636:
  3577  03BE  17CA               	bsf	___fladd@b+2,7
  3578  03BF                     l1638:
  3579  03BF  01CB               	clrf	___fladd@b+3
  3580  03C0  2BC9               	goto	l1642
  3581  03C1                     l1640:
  3582  03C1  3000               	movlw	0
  3583  03C2  00CB               	movwf	___fladd@b+3
  3584  03C3  3000               	movlw	0
  3585  03C4  00CA               	movwf	___fladd@b+2
  3586  03C5  3000               	movlw	0
  3587  03C6  00C9               	movwf	___fladd@b+1
  3588  03C7  3000               	movlw	0
  3589  03C8  00C8               	movwf	___fladd@b
  3590  03C9                     l1642:
  3591  03C9  084F               	movf	___fladd@a+3,w
  3592  03CA  3980               	andlw	128
  3593  03CB  00D0               	movwf	??___fladd
  3594  03CC  0850               	movf	??___fladd,w
  3595  03CD  00D9               	movwf	___fladd@aexp
  3596  03CE                     l1644:
  3597  03CE  0859               	movf	___fladd@aexp,w
  3598  03CF  0658               	xorwf	___fladd@signs,w
  3599  03D0  1903               	skipnz
  3600  03D1  2BD3               	goto	u1381
  3601  03D2  2BD4               	goto	u1380
  3602  03D3                     u1381:
  3603  03D3  2BD5               	goto	l1648
  3604  03D4                     u1380:
  3605  03D4                     l1646:
  3606  03D4  1758               	bsf	___fladd@signs,6
  3607  03D5                     l1648:
  3608  03D5  084F               	movf	___fladd@a+3,w
  3609  03D6  00D0               	movwf	??___fladd
  3610  03D7  0750               	addwf	??___fladd,w
  3611  03D8  00D1               	movwf	??___fladd+1
  3612  03D9  0851               	movf	??___fladd+1,w
  3613  03DA  00D9               	movwf	___fladd@aexp
  3614  03DB                     l1650:
  3615  03DB  1FCE               	btfss	___fladd@a+2,7
  3616  03DC  2BDE               	goto	u1391
  3617  03DD  2BDF               	goto	u1390
  3618  03DE                     u1391:
  3619  03DE  2BE0               	goto	l1654
  3620  03DF                     u1390:
  3621  03DF                     l1652:
  3622  03DF  1459               	bsf	___fladd@aexp,0
  3623  03E0                     l1654:
  3624  03E0  0859               	movf	___fladd@aexp,w
  3625  03E1  1903               	btfsc	3,2
  3626  03E2  2BE4               	goto	u1401
  3627  03E3  2BE5               	goto	u1400
  3628  03E4                     u1401:
  3629  03E4  2BF5               	goto	l1664
  3630  03E5                     u1400:
  3631  03E5                     l1656:
  3632  03E5  0A59               	incf	___fladd@aexp,w
  3633  03E6  1D03               	btfss	3,2
  3634  03E7  2BE9               	goto	u1411
  3635  03E8  2BEA               	goto	u1410
  3636  03E9                     u1411:
  3637  03E9  2BF2               	goto	l1660
  3638  03EA                     u1410:
  3639  03EA                     l1658:
  3640  03EA  3000               	movlw	0
  3641  03EB  00CF               	movwf	___fladd@a+3
  3642  03EC  3000               	movlw	0
  3643  03ED  00CE               	movwf	___fladd@a+2
  3644  03EE  3000               	movlw	0
  3645  03EF  00CD               	movwf	___fladd@a+1
  3646  03F0  3000               	movlw	0
  3647  03F1  00CC               	movwf	___fladd@a
  3648  03F2                     l1660:
  3649  03F2  17CE               	bsf	___fladd@a+2,7
  3650  03F3                     l1662:
  3651  03F3  01CF               	clrf	___fladd@a+3
  3652  03F4  2BFD               	goto	l593
  3653  03F5                     l1664:
  3654  03F5  3000               	movlw	0
  3655  03F6  00CF               	movwf	___fladd@a+3
  3656  03F7  3000               	movlw	0
  3657  03F8  00CE               	movwf	___fladd@a+2
  3658  03F9  3000               	movlw	0
  3659  03FA  00CD               	movwf	___fladd@a+1
  3660  03FB  3000               	movlw	0
  3661  03FC  00CC               	movwf	___fladd@a
  3662  03FD                     l593:
  3663  03FD  085A               	movf	___fladd@bexp,w
  3664  03FE  0259               	subwf	___fladd@aexp,w
  3665  03FF  1803               	skipnc
  3666  0400  2C02               	goto	u1421
  3667  0401  2C03               	goto	u1420
  3668  0402                     u1421:
  3669  0402  2C47               	goto	l1700
  3670  0403                     u1420:
  3671  0403                     l1666:
  3672  0403  1F58               	btfss	___fladd@signs,6
  3673  0404  2C06               	goto	u1431
  3674  0405  2C07               	goto	u1430
  3675  0406                     u1431:
  3676  0406  2C0B               	goto	l1670
  3677  0407                     u1430:
  3678  0407                     l1668:
  3679  0407  3080               	movlw	128
  3680  0408  00D0               	movwf	??___fladd
  3681  0409  0850               	movf	??___fladd,w
  3682  040A  06D8               	xorwf	___fladd@signs,f
  3683  040B                     l1670:
  3684  040B  085A               	movf	___fladd@bexp,w
  3685  040C  00D0               	movwf	??___fladd
  3686  040D  0850               	movf	??___fladd,w
  3687  040E  00DB               	movwf	___fladd@grs
  3688  040F                     l1672:
  3689  040F  0859               	movf	___fladd@aexp,w
  3690  0410  00D0               	movwf	??___fladd
  3691  0411  0850               	movf	??___fladd,w
  3692  0412  00DA               	movwf	___fladd@bexp
  3693  0413                     l1674:
  3694  0413  085B               	movf	___fladd@grs,w
  3695  0414  00D0               	movwf	??___fladd
  3696  0415  0850               	movf	??___fladd,w
  3697  0416  00D9               	movwf	___fladd@aexp
  3698  0417                     l1676:
  3699  0417  0848               	movf	___fladd@b,w
  3700  0418  00D0               	movwf	??___fladd
  3701  0419  0850               	movf	??___fladd,w
  3702  041A  00DB               	movwf	___fladd@grs
  3703  041B                     l1678:
  3704  041B  084C               	movf	___fladd@a,w
  3705  041C  00D0               	movwf	??___fladd
  3706  041D  0850               	movf	??___fladd,w
  3707  041E  00C8               	movwf	___fladd@b
  3708  041F                     l1680:
  3709  041F  085B               	movf	___fladd@grs,w
  3710  0420  00D0               	movwf	??___fladd
  3711  0421  0850               	movf	??___fladd,w
  3712  0422  00CC               	movwf	___fladd@a
  3713  0423                     l1682:
  3714  0423  0849               	movf	___fladd@b+1,w
  3715  0424  00D0               	movwf	??___fladd
  3716  0425  0850               	movf	??___fladd,w
  3717  0426  00DB               	movwf	___fladd@grs
  3718  0427                     l1684:
  3719  0427  084D               	movf	___fladd@a+1,w
  3720  0428  00D0               	movwf	??___fladd
  3721  0429  0850               	movf	??___fladd,w
  3722  042A  00C9               	movwf	___fladd@b+1
  3723  042B                     l1686:
  3724  042B  085B               	movf	___fladd@grs,w
  3725  042C  00D0               	movwf	??___fladd
  3726  042D  0850               	movf	??___fladd,w
  3727  042E  00CD               	movwf	___fladd@a+1
  3728  042F                     l1688:
  3729  042F  084A               	movf	___fladd@b+2,w
  3730  0430  00D0               	movwf	??___fladd
  3731  0431  0850               	movf	??___fladd,w
  3732  0432  00DB               	movwf	___fladd@grs
  3733  0433                     l1690:
  3734  0433  084E               	movf	___fladd@a+2,w
  3735  0434  00D0               	movwf	??___fladd
  3736  0435  0850               	movf	??___fladd,w
  3737  0436  00CA               	movwf	___fladd@b+2
  3738  0437                     l1692:
  3739  0437  085B               	movf	___fladd@grs,w
  3740  0438  00D0               	movwf	??___fladd
  3741  0439  0850               	movf	??___fladd,w
  3742  043A  00CE               	movwf	___fladd@a+2
  3743  043B                     l1694:
  3744  043B  084B               	movf	___fladd@b+3,w
  3745  043C  00D0               	movwf	??___fladd
  3746  043D  0850               	movf	??___fladd,w
  3747  043E  00DB               	movwf	___fladd@grs
  3748  043F                     l1696:
  3749  043F  084F               	movf	___fladd@a+3,w
  3750  0440  00D0               	movwf	??___fladd
  3751  0441  0850               	movf	??___fladd,w
  3752  0442  00CB               	movwf	___fladd@b+3
  3753  0443                     l1698:
  3754  0443  085B               	movf	___fladd@grs,w
  3755  0444  00D0               	movwf	??___fladd
  3756  0445  0850               	movf	??___fladd,w
  3757  0446  00CF               	movwf	___fladd@a+3
  3758  0447                     l1700:
  3759  0447  01DB               	clrf	___fladd@grs
  3760  0448                     l1702:
  3761  0448  0859               	movf	___fladd@aexp,w
  3762  0449  00D0               	movwf	??___fladd
  3763  044A  01D1               	clrf	??___fladd+1
  3764  044B  0851               	movf	??___fladd+1,w
  3765  044C  00D3               	movwf	??___fladd+3
  3766  044D  085A               	movf	___fladd@bexp,w
  3767  044E  0250               	subwf	??___fladd,w
  3768  044F  00D2               	movwf	??___fladd+2
  3769  0450  1C03               	skipc
  3770  0451  03D3               	decf	??___fladd+3,f
  3771  0452  0853               	movf	??___fladd+3,w
  3772  0453  3A80               	xorlw	128
  3773  0454  00FF               	movwf	btemp+1
  3774  0455  3080               	movlw	128
  3775  0456  027F               	subwf	btemp+1,w
  3776  0457  1D03               	skipz
  3777  0458  2C5B               	goto	u1445
  3778  0459  301A               	movlw	26
  3779  045A  0252               	subwf	??___fladd+2,w
  3780  045B                     u1445:
  3781  045B  1C03               	skipc
  3782  045C  2C5E               	goto	u1441
  3783  045D  2C5F               	goto	u1440
  3784  045E                     u1441:
  3785  045E  2C9C               	goto	l1718
  3786  045F                     u1440:
  3787  045F                     l1704:
  3788  045F  1283               	bcf	3,5	;RP0=0, select bank0
  3789  0460  1303               	bcf	3,6	;RP1=0, select bank0
  3790  0461  084B               	movf	___fladd@b+3,w
  3791  0462  044A               	iorwf	___fladd@b+2,w
  3792  0463  0449               	iorwf	___fladd@b+1,w
  3793  0464  0448               	iorwf	___fladd@b,w
  3794  0465  1D03               	skipz
  3795  0466  2C68               	goto	u1451
  3796  0467  2C6A               	goto	u1450
  3797  0468                     u1451:
  3798  0468  3001               	movlw	1
  3799  0469  2C6B               	goto	u1460
  3800  046A                     u1450:
  3801  046A  3000               	movlw	0
  3802  046B                     u1460:
  3803  046B  00D0               	movwf	??___fladd
  3804  046C  0850               	movf	??___fladd,w
  3805  046D  00DB               	movwf	___fladd@grs
  3806  046E  3000               	movlw	0
  3807  046F  00CB               	movwf	___fladd@b+3
  3808  0470  3000               	movlw	0
  3809  0471  00CA               	movwf	___fladd@b+2
  3810  0472  3000               	movlw	0
  3811  0473  00C9               	movwf	___fladd@b+1
  3812  0474  3000               	movlw	0
  3813  0475  00C8               	movwf	___fladd@b
  3814  0476  0859               	movf	___fladd@aexp,w
  3815  0477  00D0               	movwf	??___fladd
  3816  0478  0850               	movf	??___fladd,w
  3817  0479  00DA               	movwf	___fladd@bexp
  3818  047A  2CA4               	goto	l597
  3819  047B                     l599:
  3820  047B  1C5B               	btfss	___fladd@grs,0
  3821  047C  2C7E               	goto	u1471
  3822  047D  2C7F               	goto	u1470
  3823  047E                     u1471:
  3824  047E  2C88               	goto	l1708
  3825  047F                     u1470:
  3826  047F                     l1706:
  3827  047F  085B               	movf	___fladd@grs,w
  3828  0480  00D0               	movwf	??___fladd
  3829  0481  1003               	clrc
  3830  0482  0C50               	rrf	??___fladd,w
  3831  0483  3801               	iorlw	1
  3832  0484  00D1               	movwf	??___fladd+1
  3833  0485  0851               	movf	??___fladd+1,w
  3834  0486  00DB               	movwf	___fladd@grs
  3835  0487  2C8A               	goto	l1710
  3836  0488                     l1708:
  3837  0488  1003               	clrc
  3838  0489  0CDB               	rrf	___fladd@grs,f
  3839  048A                     l1710:
  3840  048A  1C48               	btfss	___fladd@b,0
  3841  048B  2C8D               	goto	u1481
  3842  048C  2C8E               	goto	u1480
  3843  048D                     u1481:
  3844  048D  2C8F               	goto	l1714
  3845  048E                     u1480:
  3846  048E                     l1712:
  3847  048E  17DB               	bsf	___fladd@grs,7
  3848  048F                     l1714:
  3849  048F  3001               	movlw	1
  3850  0490  00D0               	movwf	??___fladd
  3851  0491                     u1495:
  3852  0491  0D4B               	rlf	___fladd@b+3,w
  3853  0492  0CCB               	rrf	___fladd@b+3,f
  3854  0493  0CCA               	rrf	___fladd@b+2,f
  3855  0494  0CC9               	rrf	___fladd@b+1,f
  3856  0495  0CC8               	rrf	___fladd@b,f
  3857  0496  0BD0               	decfsz	??___fladd& (0+127),f
  3858  0497  2C91               	goto	u1495
  3859  0498                     l1716:
  3860  0498  3001               	movlw	1
  3861  0499  00D0               	movwf	??___fladd
  3862  049A  0850               	movf	??___fladd,w
  3863  049B  07DA               	addwf	___fladd@bexp,f
  3864  049C                     l1718:
  3865  049C  1283               	bcf	3,5	;RP0=0, select bank0
  3866  049D  1303               	bcf	3,6	;RP1=0, select bank0
  3867  049E  0859               	movf	___fladd@aexp,w
  3868  049F  025A               	subwf	___fladd@bexp,w
  3869  04A0  1C03               	skipc
  3870  04A1  2CA3               	goto	u1501
  3871  04A2  2CA4               	goto	u1500
  3872  04A3                     u1501:
  3873  04A3  2C7B               	goto	l599
  3874  04A4                     u1500:
  3875  04A4                     l597:
  3876  04A4  1B58               	btfsc	___fladd@signs,6
  3877  04A5  2CA7               	goto	u1511
  3878  04A6  2CA8               	goto	u1510
  3879  04A7                     u1511:
  3880  04A7  2CF3               	goto	l1744
  3881  04A8                     u1510:
  3882  04A8                     l1720:
  3883  04A8  085A               	movf	___fladd@bexp,w
  3884  04A9  1D03               	btfss	3,2
  3885  04AA  2CAC               	goto	u1521
  3886  04AB  2CAD               	goto	u1520
  3887  04AC                     u1521:
  3888  04AC  2CB6               	goto	l1726
  3889  04AD                     u1520:
  3890  04AD                     l1722:
  3891  04AD  3000               	movlw	0
  3892  04AE  00CB               	movwf	?___fladd+3
  3893  04AF  3000               	movlw	0
  3894  04B0  00CA               	movwf	?___fladd+2
  3895  04B1  3000               	movlw	0
  3896  04B2  00C9               	movwf	?___fladd+1
  3897  04B3  3000               	movlw	0
  3898  04B4  00C8               	movwf	?___fladd
  3899  04B5  2E21               	goto	l606
  3900  04B6                     l1726:
  3901  04B6  084C               	movf	___fladd@a,w
  3902  04B7  07C8               	addwf	___fladd@b,f
  3903  04B8  084D               	movf	___fladd@a+1,w
  3904  04B9  1103               	clrz
  3905  04BA  1803               	skipnc
  3906  04BB  3E01               	addlw	1
  3907  04BC  1903               	skipnz
  3908  04BD  2CBF               	goto	u1531
  3909  04BE  07C9               	addwf	___fladd@b+1,f
  3910  04BF                     u1531:
  3911  04BF  084E               	movf	___fladd@a+2,w
  3912  04C0  1103               	clrz
  3913  04C1  1803               	skipnc
  3914  04C2  3E01               	addlw	1
  3915  04C3  1903               	skipnz
  3916  04C4  2CC6               	goto	u1532
  3917  04C5  07CA               	addwf	___fladd@b+2,f
  3918  04C6                     u1532:
  3919  04C6  084F               	movf	___fladd@a+3,w
  3920  04C7  1103               	clrz
  3921  04C8  1803               	skipnc
  3922  04C9  3E01               	addlw	1
  3923  04CA  1903               	skipnz
  3924  04CB  2CCD               	goto	u1533
  3925  04CC  07CB               	addwf	___fladd@b+3,f
  3926  04CD                     u1533:
  3927  04CD                     l1728:
  3928  04CD  1C4B               	btfss	___fladd@b+3,0
  3929  04CE  2CD0               	goto	u1541
  3930  04CF  2CD1               	goto	u1540
  3931  04D0                     u1541:
  3932  04D0  2DA7               	goto	l1778
  3933  04D1                     u1540:
  3934  04D1                     l1730:
  3935  04D1  1C5B               	btfss	___fladd@grs,0
  3936  04D2  2CD4               	goto	u1551
  3937  04D3  2CD5               	goto	u1550
  3938  04D4                     u1551:
  3939  04D4  2CDE               	goto	l1734
  3940  04D5                     u1550:
  3941  04D5                     l1732:
  3942  04D5  085B               	movf	___fladd@grs,w
  3943  04D6  00D0               	movwf	??___fladd
  3944  04D7  1003               	clrc
  3945  04D8  0C50               	rrf	??___fladd,w
  3946  04D9  3801               	iorlw	1
  3947  04DA  00D1               	movwf	??___fladd+1
  3948  04DB  0851               	movf	??___fladd+1,w
  3949  04DC  00DB               	movwf	___fladd@grs
  3950  04DD  2CE0               	goto	l1736
  3951  04DE                     l1734:
  3952  04DE  1003               	clrc
  3953  04DF  0CDB               	rrf	___fladd@grs,f
  3954  04E0                     l1736:
  3955  04E0  1C48               	btfss	___fladd@b,0
  3956  04E1  2CE3               	goto	u1561
  3957  04E2  2CE4               	goto	u1560
  3958  04E3                     u1561:
  3959  04E3  2CE5               	goto	l1740
  3960  04E4                     u1560:
  3961  04E4                     l1738:
  3962  04E4  17DB               	bsf	___fladd@grs,7
  3963  04E5                     l1740:
  3964  04E5  3001               	movlw	1
  3965  04E6  00D0               	movwf	??___fladd
  3966  04E7                     u1575:
  3967  04E7  0D4B               	rlf	___fladd@b+3,w
  3968  04E8  0CCB               	rrf	___fladd@b+3,f
  3969  04E9  0CCA               	rrf	___fladd@b+2,f
  3970  04EA  0CC9               	rrf	___fladd@b+1,f
  3971  04EB  0CC8               	rrf	___fladd@b,f
  3972  04EC  0BD0               	decfsz	??___fladd& (0+127),f
  3973  04ED  2CE7               	goto	u1575
  3974  04EE                     l1742:
  3975  04EE  3001               	movlw	1
  3976  04EF  00D0               	movwf	??___fladd
  3977  04F0  0850               	movf	??___fladd,w
  3978  04F1  07DA               	addwf	___fladd@bexp,f
  3979  04F2  2DA7               	goto	l1778
  3980  04F3                     l1744:
  3981  04F3  084B               	movf	___fladd@b+3,w
  3982  04F4  3A80               	xorlw	128
  3983  04F5  00FF               	movwf	btemp+1
  3984  04F6  084F               	movf	___fladd@a+3,w
  3985  04F7  3A80               	xorlw	128
  3986  04F8  027F               	subwf	btemp+1,w
  3987  04F9  1D03               	skipz
  3988  04FA  2D05               	goto	u1583
  3989  04FB  084E               	movf	___fladd@a+2,w
  3990  04FC  024A               	subwf	___fladd@b+2,w
  3991  04FD  1D03               	skipz
  3992  04FE  2D05               	goto	u1583
  3993  04FF  084D               	movf	___fladd@a+1,w
  3994  0500  0249               	subwf	___fladd@b+1,w
  3995  0501  1D03               	skipz
  3996  0502  2D05               	goto	u1583
  3997  0503  084C               	movf	___fladd@a,w
  3998  0504  0248               	subwf	___fladd@b,w
  3999  0505                     u1583:
  4000  0505  1803               	skipnc
  4001  0506  2D08               	goto	u1581
  4002  0507  2D09               	goto	u1580
  4003  0508                     u1581:
  4004  0508  2D61               	goto	l1754
  4005  0509                     u1580:
  4006  0509                     l1746:
  4007  0509  30FF               	movlw	255
  4008  050A  00D0               	movwf	??___fladd
  4009  050B  30FF               	movlw	255
  4010  050C  00D1               	movwf	??___fladd+1
  4011  050D  30FF               	movlw	255
  4012  050E  00D2               	movwf	??___fladd+2
  4013  050F  30FF               	movlw	255
  4014  0510  00D3               	movwf	??___fladd+3
  4015  0511  084C               	movf	___fladd@a,w
  4016  0512  00D4               	movwf	??___fladd+4
  4017  0513  084D               	movf	___fladd@a+1,w
  4018  0514  00D5               	movwf	??___fladd+5
  4019  0515  084E               	movf	___fladd@a+2,w
  4020  0516  00D6               	movwf	??___fladd+6
  4021  0517  084F               	movf	___fladd@a+3,w
  4022  0518  00D7               	movwf	??___fladd+7
  4023  0519  0848               	movf	___fladd@b,w
  4024  051A  02D4               	subwf	??___fladd+4,f
  4025  051B  0849               	movf	___fladd@b+1,w
  4026  051C  1C03               	skipc
  4027  051D  0F49               	incfsz	___fladd@b+1,w
  4028  051E  2D20               	goto	u1591
  4029  051F  2D21               	goto	u1592
  4030  0520                     u1591:
  4031  0520  02D5               	subwf	??___fladd+5,f
  4032  0521                     u1592:
  4033  0521  084A               	movf	___fladd@b+2,w
  4034  0522  1C03               	skipc
  4035  0523  0F4A               	incfsz	___fladd@b+2,w
  4036  0524  2D26               	goto	u1593
  4037  0525  2D27               	goto	u1594
  4038  0526                     u1593:
  4039  0526  02D6               	subwf	??___fladd+6,f
  4040  0527                     u1594:
  4041  0527  084B               	movf	___fladd@b+3,w
  4042  0528  1C03               	skipc
  4043  0529  0F4B               	incfsz	___fladd@b+3,w
  4044  052A  2D2C               	goto	u1595
  4045  052B  2D2D               	goto	u1596
  4046  052C                     u1595:
  4047  052C  02D7               	subwf	??___fladd+7,f
  4048  052D                     u1596:
  4049  052D  0854               	movf	??___fladd+4,w
  4050  052E  07D0               	addwf	??___fladd,f
  4051  052F  0855               	movf	??___fladd+5,w
  4052  0530  1803               	skipnc
  4053  0531  0F55               	incfsz	??___fladd+5,w
  4054  0532  2D34               	goto	u1600
  4055  0533  2D35               	goto	u1601
  4056  0534                     u1600:
  4057  0534  07D1               	addwf	??___fladd+1,f
  4058  0535                     u1601:
  4059  0535  0856               	movf	??___fladd+6,w
  4060  0536  1803               	skipnc
  4061  0537  0F56               	incfsz	??___fladd+6,w
  4062  0538  2D3A               	goto	u1602
  4063  0539  2D3B               	goto	u1603
  4064  053A                     u1602:
  4065  053A  07D2               	addwf	??___fladd+2,f
  4066  053B                     u1603:
  4067  053B  0857               	movf	??___fladd+7,w
  4068  053C  1803               	skipnc
  4069  053D  0A57               	incf	??___fladd+7,w
  4070  053E  07D3               	addwf	??___fladd+3,f
  4071  053F  0853               	movf	??___fladd+3,w
  4072  0540  00CB               	movwf	___fladd@b+3
  4073  0541  0852               	movf	??___fladd+2,w
  4074  0542  00CA               	movwf	___fladd@b+2
  4075  0543  0851               	movf	??___fladd+1,w
  4076  0544  00C9               	movwf	___fladd@b+1
  4077  0545  0850               	movf	??___fladd,w
  4078  0546  00C8               	movwf	___fladd@b
  4079  0547                     l1748:
  4080  0547  3080               	movlw	128
  4081  0548  00D0               	movwf	??___fladd
  4082  0549  0850               	movf	??___fladd,w
  4083  054A  06D8               	xorwf	___fladd@signs,f
  4084  054B  09DB               	comf	___fladd@grs,f
  4085  054C  0ADB               	incf	___fladd@grs,f
  4086  054D                     l1750:
  4087  054D  085B               	movf	___fladd@grs,w
  4088  054E  1D03               	btfss	3,2
  4089  054F  2D51               	goto	u1611
  4090  0550  2D52               	goto	u1610
  4091  0551                     u1611:
  4092  0551  2D6F               	goto	l614
  4093  0552                     u1610:
  4094  0552                     l1752:
  4095  0552  3001               	movlw	1
  4096  0553  07C8               	addwf	___fladd@b,f
  4097  0554  3000               	movlw	0
  4098  0555  1803               	skipnc
  4099  0556  3001               	movlw	1
  4100  0557  07C9               	addwf	___fladd@b+1,f
  4101  0558  3000               	movlw	0
  4102  0559  1803               	skipnc
  4103  055A  3001               	movlw	1
  4104  055B  07CA               	addwf	___fladd@b+2,f
  4105  055C  3000               	movlw	0
  4106  055D  1803               	skipnc
  4107  055E  3001               	movlw	1
  4108  055F  07CB               	addwf	___fladd@b+3,f
  4109  0560  2D6F               	goto	l614
  4110  0561                     l1754:
  4111  0561  084C               	movf	___fladd@a,w
  4112  0562  02C8               	subwf	___fladd@b,f
  4113  0563  084D               	movf	___fladd@a+1,w
  4114  0564  1C03               	skipc
  4115  0565  0F4D               	incfsz	___fladd@a+1,w
  4116  0566  02C9               	subwf	___fladd@b+1,f
  4117  0567  084E               	movf	___fladd@a+2,w
  4118  0568  1C03               	skipc
  4119  0569  0F4E               	incfsz	___fladd@a+2,w
  4120  056A  02CA               	subwf	___fladd@b+2,f
  4121  056B  084F               	movf	___fladd@a+3,w
  4122  056C  1C03               	skipc
  4123  056D  0F4F               	incfsz	___fladd@a+3,w
  4124  056E  02CB               	subwf	___fladd@b+3,f
  4125  056F                     l614:
  4126  056F  084B               	movf	___fladd@b+3,w
  4127  0570  044A               	iorwf	___fladd@b+2,w
  4128  0571  0449               	iorwf	___fladd@b+1,w
  4129  0572  0448               	iorwf	___fladd@b,w
  4130  0573  1D03               	skipz
  4131  0574  2D76               	goto	u1621
  4132  0575  2D77               	goto	u1620
  4133  0576                     u1621:
  4134  0576  2DA3               	goto	l1776
  4135  0577                     u1620:
  4136  0577                     l1756:
  4137  0577  085B               	movf	___fladd@grs,w
  4138  0578  1D03               	btfss	3,2
  4139  0579  2D7B               	goto	u1631
  4140  057A  2D7C               	goto	u1630
  4141  057B                     u1631:
  4142  057B  2DA3               	goto	l1776
  4143  057C                     u1630:
  4144  057C                     l1758:
  4145  057C  3000               	movlw	0
  4146  057D  00CB               	movwf	?___fladd+3
  4147  057E  3000               	movlw	0
  4148  057F  00CA               	movwf	?___fladd+2
  4149  0580  3000               	movlw	0
  4150  0581  00C9               	movwf	?___fladd+1
  4151  0582  3000               	movlw	0
  4152  0583  00C8               	movwf	?___fladd
  4153  0584  2E21               	goto	l606
  4154  0585                     l1762:
  4155  0585  3001               	movlw	1
  4156  0586  00D0               	movwf	??___fladd
  4157  0587                     u1645:
  4158  0587  1003               	clrc
  4159  0588  0DC8               	rlf	___fladd@b,f
  4160  0589  0DC9               	rlf	___fladd@b+1,f
  4161  058A  0DCA               	rlf	___fladd@b+2,f
  4162  058B  0DCB               	rlf	___fladd@b+3,f
  4163  058C  0BD0               	decfsz	??___fladd,f
  4164  058D  2D87               	goto	u1645
  4165  058E                     l1764:
  4166  058E  1FDB               	btfss	___fladd@grs,7
  4167  058F  2D91               	goto	u1651
  4168  0590  2D92               	goto	u1650
  4169  0591                     u1651:
  4170  0591  2D93               	goto	l618
  4171  0592                     u1650:
  4172  0592                     l1766:
  4173  0592  1448               	bsf	___fladd@b,0
  4174  0593                     l618:
  4175  0593  1C5B               	btfss	___fladd@grs,0
  4176  0594  2D96               	goto	u1661
  4177  0595  2D97               	goto	u1660
  4178  0596                     u1661:
  4179  0596  2D9A               	goto	l1770
  4180  0597                     u1660:
  4181  0597                     l1768:
  4182  0597  1403               	setc
  4183  0598  0DDB               	rlf	___fladd@grs,f
  4184  0599  2D9C               	goto	l1772
  4185  059A                     l1770:
  4186  059A  1003               	clrc
  4187  059B  0DDB               	rlf	___fladd@grs,f
  4188  059C                     l1772:
  4189  059C  085A               	movf	___fladd@bexp,w
  4190  059D  1903               	btfsc	3,2
  4191  059E  2DA0               	goto	u1671
  4192  059F  2DA1               	goto	u1670
  4193  05A0                     u1671:
  4194  05A0  2DA3               	goto	l1776
  4195  05A1                     u1670:
  4196  05A1                     l1774:
  4197  05A1  3001               	movlw	1
  4198  05A2  02DA               	subwf	___fladd@bexp,f
  4199  05A3                     l1776:
  4200  05A3  1FCA               	btfss	___fladd@b+2,7
  4201  05A4  2DA6               	goto	u1681
  4202  05A5  2DA7               	goto	u1680
  4203  05A6                     u1681:
  4204  05A6  2D85               	goto	l1762
  4205  05A7                     u1680:
  4206  05A7                     l1778:
  4207  05A7  01D9               	clrf	___fladd@aexp
  4208  05A8                     l1780:
  4209  05A8  1FDB               	btfss	___fladd@grs,7
  4210  05A9  2DAB               	goto	u1691
  4211  05AA  2DAC               	goto	u1690
  4212  05AB                     u1691:
  4213  05AB  2DBA               	goto	l1788
  4214  05AC                     u1690:
  4215  05AC                     l1782:
  4216  05AC  085B               	movf	___fladd@grs,w
  4217  05AD  397F               	andlw	127
  4218  05AE  1903               	btfsc	3,2
  4219  05AF  2DB1               	goto	u1701
  4220  05B0  2DB2               	goto	u1700
  4221  05B1                     u1701:
  4222  05B1  2DB5               	goto	l624
  4223  05B2                     u1700:
  4224  05B2                     l1784:
  4225  05B2  01D9               	clrf	___fladd@aexp
  4226  05B3  0AD9               	incf	___fladd@aexp,f
  4227  05B4  2DBA               	goto	l1788
  4228  05B5                     l624:
  4229  05B5  1C48               	btfss	___fladd@b,0
  4230  05B6  2DB8               	goto	u1711
  4231  05B7  2DB9               	goto	u1710
  4232  05B8                     u1711:
  4233  05B8  2DBA               	goto	l1788
  4234  05B9                     u1710:
  4235  05B9  2DB2               	goto	l1784
  4236  05BA                     l1788:
  4237  05BA  0859               	movf	___fladd@aexp,w
  4238  05BB  1903               	btfsc	3,2
  4239  05BC  2DBE               	goto	u1721
  4240  05BD  2DBF               	goto	u1720
  4241  05BE                     u1721:
  4242  05BE  2DF3               	goto	l627
  4243  05BF                     u1720:
  4244  05BF                     l1790:
  4245  05BF  3001               	movlw	1
  4246  05C0  07C8               	addwf	___fladd@b,f
  4247  05C1  3000               	movlw	0
  4248  05C2  1803               	skipnc
  4249  05C3  3001               	movlw	1
  4250  05C4  07C9               	addwf	___fladd@b+1,f
  4251  05C5  3000               	movlw	0
  4252  05C6  1803               	skipnc
  4253  05C7  3001               	movlw	1
  4254  05C8  07CA               	addwf	___fladd@b+2,f
  4255  05C9  3000               	movlw	0
  4256  05CA  1803               	skipnc
  4257  05CB  3001               	movlw	1
  4258  05CC  07CB               	addwf	___fladd@b+3,f
  4259  05CD                     l1792:
  4260  05CD  1C4B               	btfss	___fladd@b+3,0
  4261  05CE  2DD0               	goto	u1731
  4262  05CF  2DD1               	goto	u1730
  4263  05D0                     u1731:
  4264  05D0  2DF3               	goto	l627
  4265  05D1                     u1730:
  4266  05D1                     l1794:
  4267  05D1  0848               	movf	___fladd@b,w
  4268  05D2  00D0               	movwf	??___fladd
  4269  05D3  0849               	movf	___fladd@b+1,w
  4270  05D4  00D1               	movwf	??___fladd+1
  4271  05D5  084A               	movf	___fladd@b+2,w
  4272  05D6  00D2               	movwf	??___fladd+2
  4273  05D7  084B               	movf	___fladd@b+3,w
  4274  05D8  00D3               	movwf	??___fladd+3
  4275  05D9  3001               	movlw	1
  4276  05DA  00D4               	movwf	??___fladd+4
  4277  05DB                     u1745:
  4278  05DB  0D53               	rlf	??___fladd+3,w
  4279  05DC  0CD3               	rrf	??___fladd+3,f
  4280  05DD  0CD2               	rrf	??___fladd+2,f
  4281  05DE  0CD1               	rrf	??___fladd+1,f
  4282  05DF  0CD0               	rrf	??___fladd,f
  4283  05E0                     u1740:
  4284  05E0  0BD4               	decfsz	??___fladd+4,f
  4285  05E1  2DDB               	goto	u1745
  4286  05E2  0853               	movf	??___fladd+3,w
  4287  05E3  00CB               	movwf	___fladd@b+3
  4288  05E4  0852               	movf	??___fladd+2,w
  4289  05E5  00CA               	movwf	___fladd@b+2
  4290  05E6  0851               	movf	??___fladd+1,w
  4291  05E7  00C9               	movwf	___fladd@b+1
  4292  05E8  0850               	movf	??___fladd,w
  4293  05E9  00C8               	movwf	___fladd@b
  4294  05EA  0A5A               	incf	___fladd@bexp,w
  4295  05EB  1903               	btfsc	3,2
  4296  05EC  2DEE               	goto	u1751
  4297  05ED  2DEF               	goto	u1750
  4298  05EE                     u1751:
  4299  05EE  2DF3               	goto	l627
  4300  05EF                     u1750:
  4301  05EF                     l1796:
  4302  05EF  3001               	movlw	1
  4303  05F0  00D0               	movwf	??___fladd
  4304  05F1  0850               	movf	??___fladd,w
  4305  05F2  07DA               	addwf	___fladd@bexp,f
  4306  05F3                     l627:
  4307  05F3  0A5A               	incf	___fladd@bexp,w
  4308  05F4  1903               	btfsc	3,2
  4309  05F5  2DF7               	goto	u1761
  4310  05F6  2DF8               	goto	u1760
  4311  05F7                     u1761:
  4312  05F7  2DFD               	goto	l1800
  4313  05F8                     u1760:
  4314  05F8                     l1798:
  4315  05F8  085A               	movf	___fladd@bexp,w
  4316  05F9  1D03               	btfss	3,2
  4317  05FA  2DFC               	goto	u1771
  4318  05FB  2DFD               	goto	u1770
  4319  05FC                     u1771:
  4320  05FC  2E0B               	goto	l1806
  4321  05FD                     u1770:
  4322  05FD                     l1800:
  4323  05FD  3000               	movlw	0
  4324  05FE  00CB               	movwf	___fladd@b+3
  4325  05FF  3000               	movlw	0
  4326  0600  00CA               	movwf	___fladd@b+2
  4327  0601  3000               	movlw	0
  4328  0602  00C9               	movwf	___fladd@b+1
  4329  0603  3000               	movlw	0
  4330  0604  00C8               	movwf	___fladd@b
  4331  0605                     l1802:
  4332  0605  085A               	movf	___fladd@bexp,w
  4333  0606  1D03               	btfss	3,2
  4334  0607  2E09               	goto	u1781
  4335  0608  2E0A               	goto	u1780
  4336  0609                     u1781:
  4337  0609  2E0B               	goto	l1806
  4338  060A                     u1780:
  4339  060A                     l1804:
  4340  060A  01D8               	clrf	___fladd@signs
  4341  060B                     l1806:
  4342  060B  1C5A               	btfss	___fladd@bexp,0
  4343  060C  2E0E               	goto	u1791
  4344  060D  2E0F               	goto	u1790
  4345  060E                     u1791:
  4346  060E  2E11               	goto	l1810
  4347  060F                     u1790:
  4348  060F                     l1808:
  4349  060F  17CA               	bsf	___fladd@b+2,7
  4350  0610  2E15               	goto	l635
  4351  0611                     l1810:
  4352  0611  307F               	movlw	127
  4353  0612  00D0               	movwf	??___fladd
  4354  0613  0850               	movf	??___fladd,w
  4355  0614  05CA               	andwf	___fladd@b+2,f
  4356  0615                     l635:
  4357  0615  085A               	movf	___fladd@bexp,w
  4358  0616  00D0               	movwf	??___fladd
  4359  0617  1003               	clrc
  4360  0618  0C50               	rrf	??___fladd,w
  4361  0619  00D1               	movwf	??___fladd+1
  4362  061A  0851               	movf	??___fladd+1,w
  4363  061B  00CB               	movwf	___fladd@b+3
  4364  061C                     l1812:
  4365  061C  1FD8               	btfss	___fladd@signs,7
  4366  061D  2E1F               	goto	u1801
  4367  061E  2E20               	goto	u1800
  4368  061F                     u1801:
  4369  061F  2E21               	goto	l636
  4370  0620                     u1800:
  4371  0620                     l1814:
  4372  0620  17CB               	bsf	___fladd@b+3,7
  4373  0621                     l636:
  4374  0621                     l606:
  4375  0621  0008               	return
  4376  0622                     __end_of___fladd:
  4377                           
  4378                           	psect	text12
  4379  0D42                     __ptext12:	
  4380 ;; *************** function _chselect *****************
  4381 ;; Defined at:
  4382 ;;		line 262 in file "MainP2.c"
  4383 ;; Parameters:    Size  Location     Type
  4384 ;;		None
  4385 ;; Auto vars:     Size  Location     Type
  4386 ;;		None
  4387 ;; Return value:  Size  Location     Type
  4388 ;;                  1    wreg      void 
  4389 ;; Registers used:
  4390 ;;		wreg, fsr0l, fsr0h, status,2, status,0
  4391 ;; Tracked objects:
  4392 ;;		On entry : 0/0
  4393 ;;		On exit  : 0/0
  4394 ;;		Unchanged: 0/0
  4395 ;; Data sizes:     COMMON   BANK0   BANK1   BANK3   BANK2
  4396 ;;      Params:         0       0       0       0       0
  4397 ;;      Locals:         0       0       0       0       0
  4398 ;;      Temps:          0       3       0       0       0
  4399 ;;      Totals:         0       3       0       0       0
  4400 ;;Total ram usage:        3 bytes
  4401 ;; Hardware stack levels used: 1
  4402 ;; Hardware stack levels required when called: 1
  4403 ;; This function calls:
  4404 ;;		Nothing
  4405 ;; This function is called by:
  4406 ;;		_main
  4407 ;; This function uses a non-reentrant model
  4408 ;;
  4409                           
  4410                           
  4411                           ;psect for function _chselect
  4412  0D42                     _chselect:
  4413  0D42                     l2082:	
  4414                           ;incstack = 0
  4415                           ; Regs used in _chselect: [wreg-fsr0h+status,2+status,0]
  4416                           
  4417                           
  4418                           ;MainP2.c: 263:     if(ADCON0bits.GO == 0){
  4419  0D42  1283               	bcf	3,5	;RP0=0, select bank0
  4420  0D43  1303               	bcf	3,6	;RP1=0, select bank0
  4421  0D44  189F               	btfsc	31,1	;volatile
  4422  0D45  2D47               	goto	u2321
  4423  0D46  2D48               	goto	u2320
  4424  0D47                     u2321:
  4425  0D47  2D75               	goto	l188
  4426  0D48                     u2320:
  4427  0D48  2D56               	goto	l2094
  4428  0D49                     l2086:
  4429                           
  4430                           ;MainP2.c: 267:              ADCON0bits.CHS = 1;
  4431  0D49  081F               	movf	31,w	;volatile
  4432  0D4A  39C3               	andlw	-61
  4433  0D4B  3804               	iorlw	4
  4434  0D4C  009F               	movwf	31	;volatile
  4435                           
  4436                           ;MainP2.c: 268:             break;
  4437  0D4D  2D6C               	goto	l2096
  4438  0D4E                     l2088:
  4439                           
  4440                           ;MainP2.c: 271:              ADCON0bits.CHS = 2;
  4441  0D4E  081F               	movf	31,w	;volatile
  4442  0D4F  39C3               	andlw	-61
  4443  0D50  3808               	iorlw	8
  4444  0D51  009F               	movwf	31	;volatile
  4445                           
  4446                           ;MainP2.c: 272:             break;
  4447  0D52  2D6C               	goto	l2096
  4448  0D53                     l2090:
  4449                           
  4450                           ;MainP2.c: 275:             ADCON0bits.CHS = 0;
  4451  0D53  30C3               	movlw	-61
  4452  0D54  059F               	andwf	31,f	;volatile
  4453                           
  4454                           ;MainP2.c: 276:             break;
  4455  0D55  2D6C               	goto	l2096
  4456  0D56                     l2094:
  4457  0D56  0C1F               	rrf	31,w	;volatile
  4458  0D57  00A0               	movwf	??_chselect
  4459  0D58  0C20               	rrf	??_chselect,w
  4460  0D59  390F               	andlw	15
  4461  0D5A  00A1               	movwf	??_chselect+1
  4462  0D5B  01A2               	clrf	??_chselect+2
  4463                           
  4464                           ; Switch on 2 bytes has been partitioned into a top level switch of size 1, and 1 sub-sw
      +                          itches
  4465                           ; Switch size 1, requested type "simple"
  4466                           ; Number of cases is 1, Range of values is 0 to 0
  4467                           ; switch strategies available:
  4468                           ; Name         Instructions Cycles
  4469                           ; simple_byte            4     3 (average)
  4470                           ; direct_byte           11     8 (fixed)
  4471                           ; jumptable            260     6 (fixed)
  4472                           ;	Chosen strategy is simple_byte
  4473  0D5C  0822               	movf	??_chselect+2,w
  4474  0D5D  3A00               	xorlw	0	; case 0
  4475  0D5E  1903               	skipnz
  4476  0D5F  2D61               	goto	l2706
  4477  0D60  2D6C               	goto	l2096
  4478  0D61                     l2706:
  4479                           
  4480                           ; Switch size 1, requested type "simple"
  4481                           ; Number of cases is 3, Range of values is 0 to 2
  4482                           ; switch strategies available:
  4483                           ; Name         Instructions Cycles
  4484                           ; simple_byte           10     6 (average)
  4485                           ; direct_byte           17     8 (fixed)
  4486                           ; jumptable            260     6 (fixed)
  4487                           ;	Chosen strategy is simple_byte
  4488  0D61  0821               	movf	??_chselect+1,w
  4489  0D62  3A00               	xorlw	0	; case 0
  4490  0D63  1903               	skipnz
  4491  0D64  2D49               	goto	l2086
  4492  0D65  3A01               	xorlw	1	; case 1
  4493  0D66  1903               	skipnz
  4494  0D67  2D4E               	goto	l2088
  4495  0D68  3A03               	xorlw	3	; case 2
  4496  0D69  1903               	skipnz
  4497  0D6A  2D53               	goto	l2090
  4498  0D6B  2D6C               	goto	l2096
  4499  0D6C                     l2096:
  4500                           
  4501                           ;MainP2.c: 279:             _delay((unsigned long)((150)*(4000000/4000000.0)));
  4502  0D6C  3031               	movlw	49
  4503  0D6D  1283               	bcf	3,5	;RP0=0, select bank0
  4504  0D6E  1303               	bcf	3,6	;RP1=0, select bank0
  4505  0D6F  00A0               	movwf	??_chselect
  4506  0D70                     u2867:
  4507  0D70  0BA0               	decfsz	??_chselect,f
  4508  0D71  2D70               	goto	u2867
  4509  0D72                     l2098:
  4510                           
  4511                           ;MainP2.c: 280:             ADCON0bits.GO = 1;
  4512  0D72  1283               	bcf	3,5	;RP0=0, select bank0
  4513  0D73  1303               	bcf	3,6	;RP1=0, select bank0
  4514  0D74  149F               	bsf	31,1	;volatile
  4515  0D75                     l188:
  4516  0D75  0008               	return
  4517  0D76                     __end_of_chselect:
  4518                           
  4519                           	psect	text13
  4520  0DE5                     __ptext13:	
  4521 ;; *************** function _isr *****************
  4522 ;; Defined at:
  4523 ;;		line 75 in file "MainP2.c"
  4524 ;; Parameters:    Size  Location     Type
  4525 ;;		None
  4526 ;; Auto vars:     Size  Location     Type
  4527 ;;		None
  4528 ;; Return value:  Size  Location     Type
  4529 ;;                  1    wreg      void 
  4530 ;; Registers used:
  4531 ;;		wreg, fsr0l, fsr0h, status,2, status,0
  4532 ;; Tracked objects:
  4533 ;;		On entry : 0/0
  4534 ;;		On exit  : 0/0
  4535 ;;		Unchanged: 0/0
  4536 ;; Data sizes:     COMMON   BANK0   BANK1   BANK3   BANK2
  4537 ;;      Params:         0       0       0       0       0
  4538 ;;      Locals:         0       0       0       0       0
  4539 ;;      Temps:          6       0       0       0       0
  4540 ;;      Totals:         6       0       0       0       0
  4541 ;;Total ram usage:        6 bytes
  4542 ;; Hardware stack levels used: 1
  4543 ;; This function calls:
  4544 ;;		Nothing
  4545 ;; This function is called by:
  4546 ;;		Interrupt level 1
  4547 ;; This function uses a non-reentrant model
  4548 ;;
  4549                           
  4550                           
  4551                           ;psect for function _isr
  4552  0DE5                     _isr:
  4553  0DE5                     i1l2158:
  4554  0DE5  1D0B               	btfss	11,2	;volatile
  4555  0DE6  2DE8               	goto	u233_21
  4556  0DE7  2DE9               	goto	u233_20
  4557  0DE8                     u233_21:
  4558  0DE8  2DF5               	goto	i1l2168
  4559  0DE9                     u233_20:
  4560  0DE9                     i1l2160:
  4561  0DE9  3006               	movlw	6
  4562  0DEA  1283               	bcf	3,5	;RP0=0, select bank0
  4563  0DEB  1303               	bcf	3,6	;RP1=0, select bank0
  4564  0DEC  0081               	movwf	1	;volatile
  4565  0DED                     i1l2162:
  4566  0DED  1683               	bsf	3,5	;RP0=1, select bank1
  4567  0DEE  1303               	bcf	3,6	;RP1=0, select bank1
  4568  0DEF  01A4               	clrf	_contpwm^(0+128)
  4569  0DF0  01A5               	clrf	(_contpwm+1)^(0+128)
  4570  0DF1                     i1l2164:
  4571  0DF1  110B               	bcf	11,2	;volatile
  4572  0DF2                     i1l2166:
  4573  0DF2  1283               	bcf	3,5	;RP0=0, select bank0
  4574  0DF3  1303               	bcf	3,6	;RP1=0, select bank0
  4575  0DF4  140C               	bsf	12,0	;volatile
  4576  0DF5                     i1l2168:
  4577  0DF5  1283               	bcf	3,5	;RP0=0, select bank0
  4578  0DF6  1303               	bcf	3,6	;RP1=0, select bank0
  4579  0DF7  1C0C               	btfss	12,0	;volatile
  4580  0DF8  2DFA               	goto	u234_21
  4581  0DF9  2DFB               	goto	u234_20
  4582  0DFA                     u234_21:
  4583  0DFA  2E1D               	goto	i1l152
  4584  0DFB                     u234_20:
  4585  0DFB                     i1l2170:
  4586  0DFB  100C               	bcf	12,0	;volatile
  4587  0DFC                     i1l2172:
  4588  0DFC  1683               	bsf	3,5	;RP0=1, select bank1
  4589  0DFD  1303               	bcf	3,6	;RP1=0, select bank1
  4590  0DFE  0823               	movf	(_PWMEX+1)^(0+128),w
  4591  0DFF  1283               	bcf	3,5	;RP0=0, select bank0
  4592  0E00  1303               	bcf	3,6	;RP1=0, select bank0
  4593  0E01  008F               	movwf	15	;volatile
  4594  0E02  1683               	bsf	3,5	;RP0=1, select bank1
  4595  0E03  1303               	bcf	3,6	;RP1=0, select bank1
  4596  0E04  0822               	movf	_PWMEX^(0+128),w
  4597  0E05  1283               	bcf	3,5	;RP0=0, select bank0
  4598  0E06  1303               	bcf	3,6	;RP1=0, select bank0
  4599  0E07  008E               	movwf	14	;volatile
  4600  0E08  3001               	movlw	1
  4601  0E09  1683               	bsf	3,5	;RP0=1, select bank1
  4602  0E0A  1303               	bcf	3,6	;RP1=0, select bank1
  4603  0E0B  07A4               	addwf	_contpwm^(0+128),f
  4604  0E0C  1803               	skipnc
  4605  0E0D  0AA5               	incf	(_contpwm+1)^(0+128),f
  4606  0E0E  3000               	movlw	0
  4607  0E0F  07A5               	addwf	(_contpwm+1)^(0+128),f
  4608  0E10                     i1l2174:
  4609  0E10  0324               	decf	_contpwm^(0+128),w
  4610  0E11  0425               	iorwf	(_contpwm+1)^(0+128),w
  4611  0E12  1D03               	btfss	3,2
  4612  0E13  2E15               	goto	u235_21
  4613  0E14  2E16               	goto	u235_20
  4614  0E15                     u235_21:
  4615  0E15  2E1A               	goto	i1l153
  4616  0E16                     u235_20:
  4617  0E16                     i1l2176:
  4618  0E16  1283               	bcf	3,5	;RP0=0, select bank0
  4619  0E17  1303               	bcf	3,6	;RP1=0, select bank0
  4620  0E18  1587               	bsf	7,3	;volatile
  4621  0E19  2E1D               	goto	i1l152
  4622  0E1A                     i1l153:
  4623  0E1A  1283               	bcf	3,5	;RP0=0, select bank0
  4624  0E1B  1303               	bcf	3,6	;RP1=0, select bank0
  4625  0E1C  1187               	bcf	7,3	;volatile
  4626  0E1D                     i1l152:
  4627                           
  4628                           ;MainP2.c: 110:     if(PIR1bits.ADIF){
  4629  0E1D  1F0C               	btfss	12,6	;volatile
  4630  0E1E  2E20               	goto	u236_21
  4631  0E1F  2E21               	goto	u236_20
  4632  0E20                     u236_21:
  4633  0E20  2E48               	goto	i1l155
  4634  0E21                     u236_20:
  4635  0E21  2E31               	goto	i1l2188
  4636  0E22                     i1l2180:
  4637                           
  4638                           ;MainP2.c: 113:             var0 = ADRESH;
  4639  0E22  081E               	movf	30,w	;volatile
  4640  0E23  00F6               	movwf	??_isr
  4641  0E24  0876               	movf	??_isr,w
  4642  0E25  00EE               	movwf	_var0
  4643                           
  4644                           ;MainP2.c: 114:             break;
  4645  0E26  2E47               	goto	i1l158
  4646  0E27                     i1l2182:
  4647                           
  4648                           ;MainP2.c: 117:             var1= ADRESH;
  4649  0E27  081E               	movf	30,w	;volatile
  4650  0E28  00F6               	movwf	??_isr
  4651  0E29  0876               	movf	??_isr,w
  4652  0E2A  00ED               	movwf	_var1
  4653                           
  4654                           ;MainP2.c: 118:             break;
  4655  0E2B  2E47               	goto	i1l158
  4656  0E2C                     i1l2184:
  4657                           
  4658                           ;MainP2.c: 121:             var2= ADRESH;
  4659  0E2C  081E               	movf	30,w	;volatile
  4660  0E2D  00F6               	movwf	??_isr
  4661  0E2E  0876               	movf	??_isr,w
  4662  0E2F  00EC               	movwf	_var2
  4663                           
  4664                           ;MainP2.c: 122:             break;
  4665  0E30  2E47               	goto	i1l158
  4666  0E31                     i1l2188:
  4667  0E31  0C1F               	rrf	31,w	;volatile
  4668  0E32  00F6               	movwf	??_isr
  4669  0E33  0C76               	rrf	??_isr,w
  4670  0E34  390F               	andlw	15
  4671  0E35  00F7               	movwf	??_isr+1
  4672  0E36  01F8               	clrf	??_isr+2
  4673                           
  4674                           ; Switch on 2 bytes has been partitioned into a top level switch of size 1, and 1 sub-sw
      +                          itches
  4675                           ; Switch size 1, requested type "simple"
  4676                           ; Number of cases is 1, Range of values is 0 to 0
  4677                           ; switch strategies available:
  4678                           ; Name         Instructions Cycles
  4679                           ; simple_byte            4     3 (average)
  4680                           ; direct_byte           11     8 (fixed)
  4681                           ; jumptable            260     6 (fixed)
  4682                           ;	Chosen strategy is simple_byte
  4683  0E37  0878               	movf	??_isr+2,w
  4684  0E38  3A00               	xorlw	0	; case 0
  4685  0E39  1903               	skipnz
  4686  0E3A  2E3C               	goto	i1l2708
  4687  0E3B  2E47               	goto	i1l158
  4688  0E3C                     i1l2708:
  4689                           
  4690                           ; Switch size 1, requested type "simple"
  4691                           ; Number of cases is 3, Range of values is 0 to 2
  4692                           ; switch strategies available:
  4693                           ; Name         Instructions Cycles
  4694                           ; simple_byte           10     6 (average)
  4695                           ; direct_byte           17     8 (fixed)
  4696                           ; jumptable            260     6 (fixed)
  4697                           ;	Chosen strategy is simple_byte
  4698  0E3C  0877               	movf	??_isr+1,w
  4699  0E3D  3A00               	xorlw	0	; case 0
  4700  0E3E  1903               	skipnz
  4701  0E3F  2E22               	goto	i1l2180
  4702  0E40  3A01               	xorlw	1	; case 1
  4703  0E41  1903               	skipnz
  4704  0E42  2E27               	goto	i1l2182
  4705  0E43  3A03               	xorlw	3	; case 2
  4706  0E44  1903               	skipnz
  4707  0E45  2E2C               	goto	i1l2184
  4708  0E46  2E47               	goto	i1l158
  4709  0E47                     i1l158:
  4710                           
  4711                           ;MainP2.c: 124:        PIR1bits.ADIF = 0;
  4712  0E47  130C               	bcf	12,6	;volatile
  4713  0E48                     i1l155:	
  4714                           ;MainP2.c: 125:     }
  4715                           
  4716                           
  4717                           ;MainP2.c: 127:      if(PIR1bits.TMR2IF ==1){
  4718  0E48  1C8C               	btfss	12,1	;volatile
  4719  0E49  2E4B               	goto	u237_21
  4720  0E4A  2E4C               	goto	u237_20
  4721  0E4B                     u237_21:
  4722  0E4B  2E4D               	goto	i1l161
  4723  0E4C                     u237_20:
  4724  0E4C                     i1l2190:
  4725                           
  4726                           ;MainP2.c: 128:         PIR1bits.TMR2IF = 0;
  4727  0E4C  108C               	bcf	12,1	;volatile
  4728  0E4D                     i1l161:	
  4729                           ;MainP2.c: 129:     }
  4730                           
  4731                           
  4732                           ;MainP2.c: 131:     if(PIR1bits.RCIF == 1){
  4733  0E4D  1E8C               	btfss	12,5	;volatile
  4734  0E4E  2E50               	goto	u238_21
  4735  0E4F  2E51               	goto	u238_20
  4736  0E50                     u238_21:
  4737  0E50  2E55               	goto	i1l163
  4738  0E51                     u238_20:
  4739  0E51                     i1l2192:
  4740                           
  4741                           ;MainP2.c: 132:         REC = RCREG;
  4742  0E51  081A               	movf	26,w	;volatile
  4743  0E52  00F6               	movwf	??_isr
  4744  0E53  0876               	movf	??_isr,w
  4745  0E54  00F3               	movwf	_REC
  4746  0E55                     i1l163:
  4747  0E55  087B               	movf	??_isr+5,w
  4748  0E56  008A               	movwf	10
  4749  0E57  087A               	movf	??_isr+4,w
  4750  0E58  0084               	movwf	4
  4751  0E59  0E79               	swapf	??_isr+3,w
  4752  0E5A  0083               	movwf	3
  4753  0E5B  0EFE               	swapf	btemp,f
  4754  0E5C  0E7E               	swapf	btemp,w
  4755  0E5D  0009               	retfie
  4756  0E5E                     __end_of_isr:
  4757  007E                     btemp	set	126	;btemp
  4758  007E                     wtemp0	set	126
  4759                           
  4760                           	psect	intentry
  4761  0004                     __pintentry:	
  4762                           ;incstack = 0
  4763                           ; Regs used in _isr: [wreg-fsr0h+status,2+status,0]
  4764                           
  4765  0004                     interrupt_function:
  4766  007E                     saved_w	set	btemp
  4767  0004  00FE               	movwf	btemp
  4768  0005  0E03               	swapf	3,w
  4769  0006  00F9               	movwf	??_isr+3
  4770  0007  0804               	movf	4,w
  4771  0008  00FA               	movwf	??_isr+4
  4772  0009  080A               	movf	10,w
  4773  000A  00FB               	movwf	??_isr+5
  4774  000B  120A  158A  2DE5   	ljmp	_isr
  4775                           
  4776                           	psect	config
  4777                           
  4778                           ;Config register CONFIG1 @ 0x2007
  4779                           ;	Oscillator Selection bits
  4780                           ;	FOSC = INTRC_NOCLKOUT, INTOSCIO oscillator: I/O function on RA6/OSC2/CLKOUT pin, I/O f
      +                          unction on RA7/OSC1/CLKIN
  4781                           ;	Watchdog Timer Enable bit
  4782                           ;	WDTE = OFF, WDT disabled and can be enabled by SWDTEN bit of the WDTCON register
  4783                           ;	Power-up Timer Enable bit
  4784                           ;	PWRTE = OFF, PWRT disabled
  4785                           ;	RE3/MCLR pin function select bit
  4786                           ;	MCLRE = OFF, RE3/MCLR pin function is digital input, MCLR internally tied to VDD
  4787                           ;	Code Protection bit
  4788                           ;	CP = OFF, Program memory code protection is disabled
  4789                           ;	Data Code Protection bit
  4790                           ;	CPD = OFF, Data memory code protection is disabled
  4791                           ;	Brown Out Reset Selection bits
  4792                           ;	BOREN = OFF, BOR disabled
  4793                           ;	Internal External Switchover bit
  4794                           ;	IESO = OFF, Internal/External Switchover mode is disabled
  4795                           ;	Fail-Safe Clock Monitor Enabled bit
  4796                           ;	FCMEN = OFF, Fail-Safe Clock Monitor is disabled
  4797                           ;	Low Voltage Programming Enable bit
  4798                           ;	LVP = OFF, RB3 pin has digital I/O, HV on MCLR must be used for programming
  4799                           ;	In-Circuit Debugger Mode bit
  4800                           ;	DEBUG = 0x1, unprogrammed default
  4801  2007                     	org	8199
  4802  2007  20D4               	dw	8404
  4803                           
  4804                           ;Config register CONFIG2 @ 0x2008
  4805                           ;	Brown-out Reset Selection bit
  4806                           ;	BOR4V = BOR40V, Brown-out Reset set to 4.0V
  4807                           ;	Flash Program Memory Self Write Enable bits
  4808                           ;	WRT = OFF, Write protection off
  4809  2008                     	org	8200
  4810  2008  3FFF               	dw	16383

Data Sizes:
    Strings     0
    Constant    0
    Data        2
    BSS         16
    Persistent  0
    Stack       0

Auto Spaces:
    Space          Size  Autos    Used
    COMMON           14      6      12
    BANK0            80     75      80
    BANK1            80      0       7
    BANK3            96      0       0
    BANK2            96      0       0

Pointer List with Targets:

    None.

Critical Paths under _main in COMMON

    None.

Critical Paths under _isr in COMMON

    None.

Critical Paths under _main in BANK0

    _main->_ctrservo
    _record->_writeEEPROM
    _play->_readEEPROM
    _ctrservo->___fltol
    ___fltol->___fladd
    ___flmul->___xxtofl
    ___fladd->___flmul

Critical Paths under _isr in BANK0

    None.

Critical Paths under _main in BANK1

    None.

Critical Paths under _isr in BANK1

    None.

Critical Paths under _main in BANK3

    None.

Critical Paths under _isr in BANK3

    None.

Critical Paths under _main in BANK2

    None.

Critical Paths under _isr in BANK2

    None.

Call Graph Tables:

 ---------------------------------------------------------------------------------
 (Depth) Function   	        Calls       Base Space   Used Autos Params    Refs
 ---------------------------------------------------------------------------------
 (0) _main                                                 0     0      0    8223
                           _chselect
                           _ctrservo
                               _play
                             _record
                              _setup
 ---------------------------------------------------------------------------------
 (1) _setup                                                1     1      0       0
                                              0 BANK0      1     1      0
 ---------------------------------------------------------------------------------
 (1) _record                                               2     2      0     872
                                              2 BANK0      2     2      0
                        _writeEEPROM
 ---------------------------------------------------------------------------------
 (2) _writeEEPROM                                          2     1      1     872
                                              0 BANK0      2     1      1
 ---------------------------------------------------------------------------------
 (1) _play                                                 2     2      0      65
                                              3 BANK0      2     2      0
                         _readEEPROM
 ---------------------------------------------------------------------------------
 (2) _readEEPROM                                           3     3      0      65
                                              0 BANK0      3     3      0
 ---------------------------------------------------------------------------------
 (1) _ctrservo                                             4     4      0    7286
                                             71 BANK0      4     4      0
                            ___fladd
                            ___flmul
                            ___fltol
                           ___xxtofl
 ---------------------------------------------------------------------------------
 (2) ___xxtofl                                            14    10      4     550
                                              0 BANK0     14    10      4
 ---------------------------------------------------------------------------------
 (2) ___fltol                                             11     7      4     457
                                             60 BANK0     11     7      4
                            ___fladd (ARG)
                            ___flmul (ARG)
                           ___xxtofl (ARG)
 ---------------------------------------------------------------------------------
 (2) ___flmul                                             26    18      8    3713
                                             14 BANK0     26    18      8
                          __Umul8_16
                           ___xxtofl (ARG)
 ---------------------------------------------------------------------------------
 (3) __Umul8_16                                            9     7      2     980
                                              0 BANK0      9     7      2
 ---------------------------------------------------------------------------------
 (2) ___fladd                                             20    12      8    2566
                                             40 BANK0     20    12      8
                            ___flmul (ARG)
                           ___xxtofl (ARG)
 ---------------------------------------------------------------------------------
 (1) _chselect                                             3     3      0       0
                                              0 BANK0      3     3      0
 ---------------------------------------------------------------------------------
 Estimated maximum stack depth 3
 ---------------------------------------------------------------------------------
 (Depth) Function   	        Calls       Base Space   Used Autos Params    Refs
 ---------------------------------------------------------------------------------
 (4) _isr                                                  6     6      0       0
                                              0 COMMON     6     6      0
 ---------------------------------------------------------------------------------
 Estimated maximum stack depth 4
 ---------------------------------------------------------------------------------

 Call Graph Graphs:

 _main (ROOT)
   _chselect
   _ctrservo
     ___fladd
       ___flmul (ARG)
         __Umul8_16
         ___xxtofl (ARG)
       ___xxtofl (ARG)
     ___flmul
     ___fltol
       ___fladd (ARG)
       ___flmul (ARG)
       ___xxtofl (ARG)
     ___xxtofl
   _play
     _readEEPROM
   _record
     _writeEEPROM
   _setup

 _isr (ROOT)

 Address spaces:
Name               Size   Autos  Total    Cost      Usage
BANK3               60      0       0       9        0.0%
BITBANK3            60      0       0       8        0.0%
SFR3                 0      0       0       4        0.0%
BITSFR3              0      0       0       4        0.0%
BANK2               60      0       0      11        0.0%
BITBANK2            60      0       0      10        0.0%
SFR2                 0      0       0       5        0.0%
BITSFR2              0      0       0       5        0.0%
BANK1               50      0       7       7        8.8%
BITBANK1            50      0       0       6        0.0%
SFR1                 0      0       0       2        0.0%
BITSFR1              0      0       0       2        0.0%
BANK0               50     4B      50       5      100.0%
BITBANK0            50      0       0       4        0.0%
SFR0                 0      0       0       1        0.0%
BITSFR0              0      0       0       1        0.0%
COMMON               E      6       C       1       85.7%
BITCOMMON            E      0       0       0        0.0%
CODE                 0      0       0       0        0.0%
DATA                 0      0      63      12        0.0%
ABS                  0      0      63       3        0.0%
NULL                 0      0       0       0        0.0%
STACK                0      0       0       2        0.0%
EEDATA             100      0       0       0        0.0%


Microchip Technology PIC Macro Assembler V2.32 build 20210201212658 
Symbol Table                                                                                   Mon May 31 00:58:09 2021

    __Umul8_16@word_mpld 0026                      l200 0F66                      l210 0CE6  
                    l211 0CEC                      l205 0FFF                      l214 07F9  
                    l208 0CE0                      l176 0DE4                      l179 0728  
                    l188 0D75                      l196 0F63                      l701 038D  
                    l614 056F                      l606 0621                      l710 0D15  
                    l624 05B5                      l618 0593                      l635 0615  
                    l627 05F3                      l636 0621                      l708 0D03  
                    l493 0EC4                      l733 074D                      l486 0ED9  
                    l735 07E4                      l496 0ED9                      l593 03FD  
                    l746 07AE                      l747 07BA                      l739 0792  
                    l597 04A4                      l599 047B                      l695 0305  
                    l689 0399                      _RC3 003B                      _REC 0073  
                    _PR2 0092                      _isr 0DE5                      fsr0 0004  
           ___flmul@aexp 003C             ___flmul@bexp 0041             ___flmul@sign 003B  
           ___flmul@temp 0046             ___flmul@prod 0042             ___fltol@exp1 0066  
                   l2300 0CFD                     l2302 0D0C                     l2310 0CD6  
                   l2304 0D11                     l2400 01DC                     l1600 0E94  
                   l2312 0CD9                     l2090 0D53                     l2082 0D42  
                   l2410 0289                     l2402 01F9                     l2330 0039  
                   l1602 0E98                     l1610 0EB2                     l2322 07E8  
                   l2314 0CDA                     l1700 0447                     l2420 02D5  
                   l2412 02B1                     l2404 0226                     l2340 0050  
                   l2332 0040                     l1620 0ECE                     l2324 07EC  
                   l2316 0CDF                     l2308 0CCC                     l2500 0DAE  
                   l2086 0D49                     l2094 0D56                     l1710 048A  
                   l1702 0448                     l1630 03AC                     l1622 039A  
                   l2430 02EA                     l2422 02D6                     l2414 02BA  
                   l2406 0236                     l2350 006C                     l2342 0055  
                   l2334 0046                     l2326 07EF                     l2318 0CEB  
                   l2510 0DBD                     l2502 0DB3                     l2088 0D4E  
                   l2096 0D6C                     l1800 05FD                     l1720 04A8  
                   l1712 048E                     l1704 045F                     l1632 03B1  
                   l1640 03C1                     l1624 03A1                     l2440 030F  
                   l2432 02EE                     l2424 02DF                     l2416 02C8  
                   l2408 0263                     l2360 0081                     l2352 0072  
                   l2344 005D                     l2336 004A                     l1616 0EB9  
                   l1608 0EA0                     l2600 0FE7                     l2520 0DC4  
                   l2512 0DBE                     l2504 0DB4                     l2098 0D72  
                   l1810 0611                     l1802 0605                     l1730 04D1  
                   l1722 04AD                     l1714 048F                     l1706 047F  
                   l1650 03DB                     l1642 03C9                     l1634 03B6  
                   l1626 03A7                     l2450 034D                     l2442 031D  
                   l2434 0302                     l2418 02D1                     l2426 02E5  
                   l2370 009D                     l2362 0089                     l2354 0076  
                   l2346 005F                     l2338 004B                     l1618 0EC9  
                   l2530 0DD0                     l2522 0DC5                     l2514 0DBF  
                   l2506 0DB8                     l2610 0D1E                     l1812 061C  
                   l1804 060A                     l1740 04E5                     l1732 04D5  
                   l1716 0498                     l1708 0488                     l1660 03F2  
                   l1652 03DF                     l1644 03CE                     l1636 03BE  
                   l1628 03AB                     l2460 0381                     l2452 0358  
                   l2444 0321                     l2428 02E9                     l2380 00E0  
                   l2364 008B                     l2356 0077                     l2348 0067  
                   l2540 0DD8                     l2532 0DD2                     l2524 0DC8  
                   l2516 0DC0                     l2508 0DBA                     l2620 0D39  
                   l2612 0D23                     l1814 0620                     l1806 060B  
                   l1750 054D                     l1742 04EE                     l1734 04DE  
                   l1726 04B6                     l1718 049C                     l1670 040B  
                   l1662 03F3                     l1654 03E0                     l1646 03D4  
                   l1638 03BF                     l2294 0CF0                     l2462 0385  
                   l2454 0367                     l2446 033A                     l2438 030A  
                   l2390 0169                     l2382 00FC                     l2374 00A6  
                   l2366 0093                     l2358 007C                     l2702 0F58  
                   l2550 0DE0                     l2542 0DD9                     l2534 0DD3  
                   l2526 0DCC                     l2518 0DC3                     l2470 0D76  
                   l2614 0D28                     l2606 0D16                     l1808 060F  
                   l1752 0552                     l1736 04E0                     l1728 04CD  
                   l1744 04F3                     l1680 041F                     l1672 040F  
                   l1656 03E5                     l1664 03F5                     l1648 03D5  
                   l2296 0CF2                     l2464 0386                     l2456 0371  
                   l2448 0340                     l2392 0179                     l2384 0128  
                   l2376 00B6                     l2368 0098                     l1592 0E74  
                   l2552 0622                     l2704 0FF1                     l2560 0F01  
                   l2544 0DDA                     l2536 0DD6                     l2528 0DCE  
                   l2480 0D83                     l2472 0D7A                     l2616 0D2E  
                   l2608 0D1B                     l2706 0D61                     l1770 059A  
                   l1762 0585                     l1746 0509                     l1754 0561  
                   l1738 04E4                     l1690 0433                     l1682 0423  
                   l1674 0413                     l1666 0403                     l1658 03EA  
                   l2298 0CF9                     l2466 0391                     l2458 0373  
                   l2394 0196                     l2386 0144                     l2378 00C3  
                   l1594 0E89                     l1586 0E5E                     l2562 0F23  
                   l2570 0F4E                     l2554 0EDA                     l2546 0DDB  
                   l2538 0DD7                     l2490 0D96                     l2482 0D84  
                   l2474 0D7B                     l2618 0D33                     l1780 05A8  
                   l1772 059C                     l1764 058E                     l1756 0577  
                   l1748 0547                     l1692 0437                     l1684 0427  
                   l1676 0417                     l1668 0407                     l2396 01A6  
                   l2388 0160                     l1596 0E8A                     l1588 0E6B  
                   l2580 0F88                     l2564 0F2A                     l2556 0EDC  
                   l2548 0DDC                     l2492 0D9C                     l2484 0D86  
                   l2476 0D80                     l1790 05BF                     l1782 05AC  
                   l1774 05A1                     l1766 0592                     l1758 057C  
                   l1694 043B                     l1686 042B                     l1678 041B  
                   l2398 01C3                     l1598 0E92                     l2590 0FD7  
                   l2582 0F8B                     l2566 0F4C                     l2558 0EFE  
                   l2494 0DA3                     l2486 0D8A                     l2478 0D82  
                   l1792 05CD                     l1784 05B2                     l1768 0597  
                   l1776 05A3                     l1696 043F                     l1688 042F  
                   l1960 0735                     l2592 0FDB                     l2584 0FAC  
                   l2576 0F64                     l2496 0DAA                     l2488 0D8B  
                   l1794 05D1                     l1778 05A7                     l1698 0443  
                   l1970 0763                     l1962 0745                     l2594 0FE2  
                   l2586 0FB1                     l2578 0F67                     l2498 0DAD  
                   l1796 05EF                     l1788 05BA                     l1980 0799  
                   l1972 0770                     l1964 0755                     l1956 072C  
                   l2596 0FE5                     l2588 0FD2                     l1798 05F8  
                   l1990 07D2                     l1982 07A4                     l1974 0777  
                   l1958 0731                     l1992 07D7                     l1984 07A8  
                   l1976 077B                     l1968 075E                     l1994 07DB  
                   l1986 07B2                     l1978 0789                     l1996 07DC  
                   l1988 07BC                     ?_isr 0076                     _T0IF 005A  
                   u1300 0EB1                     u1301 0EB0                     u1310 0EB8  
                   u1311 0EB7                     u1400 03E5                     u2200 0755  
                   u1401 03E4                     u2201 0754                     u1410 03EA  
                   u1330 0EC9                     u1250 0E6B                     u1411 03E9  
                   u1331 0EC8                     u1251 0E6A                     u1500 04A4  
                   u1420 0403                     u1340 0ECE                     u1260 0E82  
                   u2300 07D7                     u2220 0776                     u1501 04A3  
                   u1421 0402                     u1341 0ECD                     u1325 0EBB  
                   u2301 07D6                     u2221 0775                     u1510 04A8  
                   u1430 0407                     u1350 03AB                     u1270 0E98  
                   u2310 07DB                     u1511 04A7                     u1431 0406  
                   u1351 03AA                     u1271 0E97                     u2311 07DA  
                   u2215 0768                     u2320 0D48                     u1600 0534  
                   u1520 04AD                     u1440 045F                     u1360 03B1  
                   u1280 0E9F                     u2240 0798                     u2321 0D47  
                   u1601 0535                     u1521 04AC                     u1441 045E  
                   u1361 03B0                     u1281 0E9E                     u1265 0E7D  
                   u2241 0797                     u1610 0552                     u1602 053A  
                   u1450 046A                     u1370 03B6                     u2410 0CFD  
                   u1611 0551                     u1603 053B                     u1531 04BF  
                   u1451 0468                     u1371 03B5                     u2411 0CFC  
                   u2235 078A                     u1700 05B2                     u1620 0577  
                   u1540 04D1                     u1532 04C6                     u1460 046B  
                   u1380 03D4                     u2500 0081                     u2260 07A8  
                   u2180 0731                     u1701 05B1                     u1621 0576  
                   u1541 04D0                     u1533 04CD                     u1445 045B  
                   u1381 03D3                     u2501 0080                     u2261 07A7  
                   u2181 0730                     u1710 05B9                     u1630 057C  
                   u1550 04D5                     u1470 047F                     u1390 03DF  
                   u2430 0D11                     u2510 0098                     u2270 07AE  
                   u2190 0735                     u1711 05B8                     u1631 057B  
                   u1551 04D4                     u1471 047E                     u1391 03DE  
                   u2431 0D10                     u2511 0097                     u1295 0EA1  
                   u2271 07AD                     u2255 079D                     u2191 0734  
                   u1800 0620                     u1720 05BF                     u1560 04E4  
                   u1480 048E                     u2520 009D                     u2280 07B2  
                   u2440 0CE6                     u1801 061F                     u1721 05BE  
                   u1561 04E3                     u1481 048D                     u2425 0D04  
                   u2521 009C                     u2281 07B1                     u2441 0CE5  
                   u1730 05D1                     u1650 0592                     u2450 004A  
                   u2290 07C7                     u1731 05D0                     u1651 0591  
                   u2611 01EB                     u2531 00EE                     u2451 0049  
                   u1740 05E0                     u1660 0597                     u1580 0509  
                   u2700 02D5                     u2612 01F2                     u2532 00F5  
                   u2460 0050                     u1661 0596                     u1645 0587  
                   u1581 0508                     u2701 02D4                     u2621 0218  
                   u2613 01F9                     u2605 01C5                     u2541 010A  
                   u2533 00FC                     u2461 004F                     u1750 05EF  
                   u1670 05A1                     u2622 021F                     u2542 0111  
                   u2470 0055                     u1751 05EE                     u1671 05A0  
                   u1591 0520                     u1583 0505                     u1575 04E7  
                   u1495 0491                     u2631 0245                     u2623 0226  
                   u2551 0136                     u2543 0118                     u2471 0054  
                   u2295 07C2                     _PIE1 008C                     u1760 05F8  
                   u1680 05A7                     u1592 0521                     u2800 0367  
                   u2720 02E9                     u2640 026F                     u2632 024C  
                   u2552 013D                     u2480 0076                     _PIE2 008D  
                   u1761 05F7                     u1745 05DB                     u1681 05A6  
                   u1593 0526                     u2801 0366                     u2721 02E8  
                   u2633 0253                     u2561 0152                     u2553 0144  
                   u2481 0075                     u1770 05FD                     u1690 05AC  
                   u1594 0527                     u2810 0385                     u2730 02EE  
                   u2562 0159                     u2490 007C                     u1771 05FC  
                   u1691 05AB                     u1595 052C                     u2811 0384  
                   u2731 02ED                     u2715 02D8                     u2651 027B  
                   u2563 0160                     u2491 007B                     u1780 060A  
                   u1596 052D                     u2740 0302                     u2660 0297  
                   u2652 0282                     u2820 0D2E                     u1781 0609  
                   u2805 0363                     u2741 0301                     u2653 0289  
                   u2645 026A                     u2581 0188                     u2821 0D2D  
                   u1790 060F                     u2750 0309                     u2582 018F  
                   u2830 0D39                     u1791 060E                     u2751 0308  
                   u2671 02A3                     u2591 01B5                     u2583 0196  
                   u2575 0162                     u2831 0D38                     u2760 030F  
                   u2672 02AA                     u2592 01BC                     u2761 030E  
                   u2673 02B1                     u2665 0292                     u2593 01C3  
                   u2770 0321                     u2771 0320                     u2780 0330  
                   u2685 02B3                     u2790 034D                     u2791 034C  
                   u2695 02CA                     u2847 0DA0                     u2785 032B  
                   u2857 0FDF                     u2867 0D70                     u2795 0349  
                   _PIR1 000C                     _PIR2 000D                     _TMR0 0001  
                   _TMR1 000E                     _main 0D16                     _var0 006E  
                   _var1 006D                     _var2 006C                     _var3 0070  
                   _play 0F64                     btemp 007E                     start 000E  
            _writeEEPROM 0CC9                    ??_isr 0076            ___fltol@sign1 0065  
     writeEEPROM@address 0021          __end_of___fladd 0622                    ?_main 0076  
                  _EEADR 010D                    ?_play 0076                    _EEDAT 010C  
        __end_of___flmul 039A          __end_of___fltol 0EDA                    _ANSEL 0188  
                  _T1CON 0010                    _T2CON 0012                    i1l152 0E1D  
                  i1l161 0E4D                    i1l153 0E1A                    i1l163 0E55  
                  i1l155 0E48                    i1l158 0E47                    _RCREG 001A  
                  _TMR1H 000F                    _TMR1L 000E                    _SPBRG 0099  
                  _PORTA 0005                    _PORTB 0006                    _PORTC 0007  
                  _PORTD 0008                    _PORTE 0009                    _PWMEX 00A2  
                  _TRISA 0085                    _TRISB 0086                    _TRISC 0087  
                  _TRISD 0088                    _TRISE 0089                    _order 0072  
                  _valor 0074                    _setup 0D76                    pclath 000A  
                  status 0003                    wtemp0 007E          __initialization 0011  
           __end_of_main 0D42             __end_of_play 1000                   ??_main 006B  
                 ??_play 0023                   _ADRESH 001E                   _EEDATA 010C  
                 _CCPR1L 0015                   _CCPR2L 001B                   _EECON2 018D  
                 ?_setup 0076                   _ANSELH 0189                   i1l2160 0DE9  
                 i1l2170 0DFB                   i1l2162 0DED                   i1l2180 0E22  
                 i1l2172 0DFC                   i1l2164 0DF1                   i1l2190 0E4C  
                 i1l2182 0E27                   i1l2174 0E10                   i1l2166 0DF2  
                 i1l2158 0DE5                   i1l2192 0E51                   i1l2184 0E2C  
                 i1l2176 0E16                   i1l2168 0DF5                   i1l2188 0E31  
                 i1l2708 0E3C                   u233_20 0DE9                   _INTCON 000B  
                 u233_21 0DE8                   u234_20 0DFB                   u234_21 0DFA  
                 u235_20 0E16                   u235_21 0E15                   u236_20 0E21  
                 u236_21 0E20                   u237_20 0E4C                   u237_21 0E4B  
                 u238_20 0E51                   u238_21 0E50                   _TMR1IF 0060  
                 _SPBRGH 009A                   _PWMEX2 00A0         __end_of___xxtofl 07E5  
       __end_of_chselect 0D76                ??___fladd 0050                ??___flmul 0036  
              ??___fltol 0060                   _grabar 006F         __end_of_ctrservo 0729  
                 _record 0EDA                   _orderp 006B       __size_of__Umul8_16 0029  
                 saved_w 007E             ___xxtofl@arg 002A             ___xxtofl@exp 0029  
           ___xxtofl@val 0020  __end_of__initialization 0035               ___fltol@f1 005C  
        writeEEPROM@data 0020           __pcstackCOMMON 0076             __pidataBANK0 07FA  
           __pidataBANK1 07FB            __end_of_setup 0DE5                  ??_setup 0020  
             __pbssBANK0 006B               __pbssBANK1 00A0        __end_of__Umul8_16 0D16  
             __pmaintext 0D16             ?_writeEEPROM 0020               __pintentry 0004  
                _CCP1CON 0017                  _CCP2CON 001D                  ?_record 0076  
              ?___xxtofl 0020                ?_chselect 0076                ?_ctrservo 0076  
             _readEEPROM 07E5                  ___fladd 039A                  ___flmul 0039  
                ___fltol 0E5E          __size_of_record 008A                  __ptext1 0D76  
                __ptext2 0EDA                  __ptext3 0CC9                  __ptext4 0F64  
                __ptext5 07E5                  __ptext6 0622                  __ptext7 0729  
                __ptext8 0E5E                  __ptext9 0039                  _flagint 0075  
                _contpwm 00A4             __size_of_isr 0079               ??___xxtofl 0024  
             ??_chselect 0020     end_of_initialization 0035               ??_ctrservo 0067  
              _RCSTAbits 0018               _reproducir 00A6              ___fladd@grs 005B  
          ___xxtofl@sign 0028        readEEPROM@address 0021              ___flmul@grs 003D  
            ?_readEEPROM 0076                _TXSTAbits 0098     __size_of_writeEEPROM 0024  
            _BAUDCTLbits 0187           __end_of_record 0F64      start_initialization 0011  
            __end_of_isr 0E5E                __Umul8_16 0CED              __pdataBANK0 006F  
            __pdataBANK1 00A6                 ??_record 0022                ___fladd@a 004C  
              ___fladd@b 0048      __size_of_readEEPROM 0015                ___flmul@a 0032  
              ___flmul@b 002E              __pbssCOMMON 0070                ___latbits 0002  
          __pcstackBANK0 0020        __size_of___xxtofl 00BC        __size_of_chselect 0034  
      __size_of_ctrservo 0107                 ?___fladd 0048                 ?___flmul 002E  
               ?___fltol 005C               ?__Umul8_16 0020           __size_of_setup 006F  
      interrupt_function 0004                 _PIR1bits 000C                 _PIR2bits 000D  
              _multiplex 0071               _ADCON0bits 001F               _ADCON1bits 009F  
           ??_readEEPROM 0020               _EECON1bits 018C              ??__Umul8_16 0022  
       __size_of___fladd 0288         __size_of___flmul 0361         __size_of___fltol 007C  
               ___xxtofl 0729       __end_of_readEEPROM 07FA                 _chselect 0D42  
               __ptext10 0CED                 __ptext11 039A                 __ptext12 0D42  
               __ptext13 0DE5                 _ctrservo 0622            __size_of_main 002C  
          __size_of_play 009C            ??_writeEEPROM 0021               _INTCONbits 000B  
               intlevel1 0000               _OSCCONbits 008F           readEEPROM@data 0022  
    __end_of_writeEEPROM 0CED   __Umul8_16@multiplicand 0020               _OPTION_REG 0081  
          ___fladd@signs 0058             ___fladd@aexp 0059             ___fladd@bexp 005A  
   __Umul8_16@multiplier 0028        __Umul8_16@product 0024  
